(dp0
S'SVC-binarize'
p1
(dp2
S'c'
p3
(dp4
S'recall'
p5
F1.0
sS'F-measure'
p6
F1.0
sS'precision'
p7
F1.0
sS'FP-rate'
p8
F0.0
sS'accuracy'
p9
F1.0
ssS'e'
p10
(dp11
g5
F0.9655172413793104
sg6
F0.9600000000000002
sg7
F0.9545454545454546
sg8
F0.6666666666666666
sg9
F0.9247311827956989
ssS'D'
p12
(dp13
g5
F0.9759036144578314
sg6
F0.9585798816568047
sg7
F0.9418604651162791
sg8
F0.5
sg9
F0.9247311827956989
ssS'C'
p14
(dp15
g5
F1.0
sg6
F1.0
sg7
F1.0
sg8
F0.0
sg9
F1.0
ssS'DCcEe'
p16
(dp17
g9
F0.7419354838709677
ssS'E'
p18
(dp19
g5
F0.84375
sg6
F0.8059701492537313
sg7
F0.7714285714285715
sg8
F0.13114754098360656
sg9
F0.8602150537634409
sssS'DecisionTreeClassifier-identity'
p20
(dp21
g14
(dp22
S'std'
p23
cnumpy.core.multiarray
scalar
p24
(cnumpy
dtype
p25
(S'f8'
p26
I0
I1
tp27
Rp28
(I3
S'<'
p29
NNNI-1
I-1
I0
tp30
bS'h\xeb\xc3$\xed\xea\xdd?'
p31
tp32
Rp33
sg9
g24
(g28
S'\xad\xb5\xd6Zk\xad\xe5?'
p34
tp35
Rp36
ssg10
(dp37
g23
g24
(g28
S'\x1f\xa0tx\xb22\xdb?'
p38
tp39
Rp40
sg9
g24
(g28
S'n\xb8\xe1\x86\x1bn\xe8?'
p41
tp42
Rp43
ssg12
(dp44
g23
g24
(g28
S'\xc5Z\xbcP\xb9\xa5\xdd?'
p45
tp46
Rp47
sg9
g24
(g28
S'\x06\x16X`\x81\x05\xe6?'
p48
tp49
Rp50
ssg3
(dp51
g23
g24
(g28
S'\xedo\xf5*\x1er\xcf?'
p52
tp53
Rp54
sg9
g24
(g28
S'\xef\xbd\xf7\xde{\xef\xed?'
p55
tp56
Rp57
ssS'DCcEe'
p58
(dp59
g23
g24
(g28
S'\x1a\xbce\x97\xc1[\xdd?'
p60
tp61
Rp62
sg9
g24
(g28
S'E\x13M4\xd1D\xd3?'
p63
tp64
Rp65
ssg18
(dp66
g23
g24
(g28
S'w\x02\xfe\x1aZ\xc2\xda?'
p67
tp68
Rp69
sg9
g24
(g28
S'\xc6\x18c\x8c1\xc6\xe8?'
p70
tp71
Rp72
sssS'GradientBoostingClassifier-binarize'
p73
(dp74
g3
(dp75
g5
F1.0
sg6
F1.0
sg7
F1.0
sg8
F0.0
sg9
F1.0
ssg10
(dp76
g5
F0.9540229885057471
sg6
F0.9431818181818181
sg7
F0.9325842696629213
sg8
F1.0
sg9
F0.8924731182795699
ssg12
(dp77
g5
F0.9879518072289156
sg6
F0.9704142011834319
sg7
F0.9534883720930233
sg8
F0.4
sg9
F0.946236559139785
ssg14
(dp78
g5
F0.9833333333333333
sg6
F0.9833333333333334
sg7
F0.9833333333333333
sg8
F0.030303030303030304
sg9
F0.978494623655914
ssS'DCcEe'
p79
(dp80
g9
F0.6774193548387096
ssg18
(dp81
g5
F0.59375
sg6
F0.6666666666666666
sg7
F0.76
sg8
F0.09836065573770492
sg9
F0.7956989247311828
sssS'LogisticRegression-identity'
p82
(dp83
g14
(dp84
g23
g24
(g28
S'h\x94\xd2E\xdd\xcd\xd9?'
p85
tp86
Rp87
sg9
g24
(g28
S'v\xd9e\x97]v\xe9?'
p88
tp89
Rp90
ssg10
(dp91
g23
g24
(g28
S'[;\xc0/\x80t\xd5?'
p92
tp93
Rp94
sg9
g24
(g28
S'\xdf{\xef\xbd\xf7\xde\xeb?'
p95
tp96
Rp97
ssg12
(dp98
g23
g24
(g28
S'\x1d\xa0tx\xb22\xdb?'
p99
tp100
Rp101
sg9
g24
(g28
S'n\xb8\xe1\x86\x1bn\xe8?'
p102
tp103
Rp104
ssg3
(dp105
g23
g24
(g28
S'K7r\xa7\x9a\x9d\xc6?'
p106
tp107
Rp108
sg9
g24
(g28
S'\xf8\xde{\xef\xbd\xf7\xee?'
p109
tp110
Rp111
ssS'DCcEe'
p112
(dp113
g23
g24
(g28
S'u\xffi\xb1~\xc6\xdf?'
p114
tp115
Rp116
sg9
g24
(g28
S'7\xdcp\xc3\r7\xdc?'
p117
tp118
Rp119
ssg18
(dp120
g23
g24
(g28
S"\x8e\xd6\xcc\x15\x9d'\xd8?"
p121
tp122
Rp123
sg9
g24
(g28
S'\x7f\xfa\xe9\xa7\x9f~\xea?'
p124
tp125
Rp126
sssS'GradientBoostingClassifier-identity'
p127
(dp128
g14
(dp129
g23
g24
(g28
S'\xbc\xd1\x96\xd4\xf0\xb8\xdc?'
p130
tp131
Rp132
sg9
g24
(g28
S'\x0e7\xdcp\xc3\r\xe7?'
p133
tp134
Rp135
ssg10
(dp136
g23
g24
(g28
S"\x8e\xd6\xcc\x15\x9d'\xd8?"
p137
tp138
Rp139
sg9
g24
(g28
S'\x7f\xfa\xe9\xa7\x9f~\xea?'
p140
tp141
Rp142
ssg12
(dp143
g23
g24
(g28
S'\xf9\xe2\xd2q\xde\x9c\xdb?'
p144
tp145
Rp146
sg9
g24
(g28
S'\x16X`\x81\x05\x16\xe8?'
p147
tp148
Rp149
ssg3
(dp150
g23
g24
(g28
S'K7r\xa7\x9a\x9d\xc6?'
p151
tp152
Rp153
sg9
g24
(g28
S'\xf8\xde{\xef\xbd\xf7\xee?'
p154
tp155
Rp156
ssS'DCcEe'
p157
(dp158
g23
g24
(g28
S'\xda\xa7\xdd\xf2\x85\x01\xdf?'
p159
tp160
Rp161
sg9
g24
(g28
S'\x16X`\x81\x05\x16\xd8?'
p162
tp163
Rp164
ssg18
(dp165
g23
g24
(g28
S'^\xe6\xdc\rf\xbc\xd8?'
p166
tp167
Rp168
sg9
g24
(g28
S"'\x9ah\xa2\x89&\xea?"
p169
tp170
Rp171
sssS'RandomForestClassifier-identity'
p172
(dp173
g14
(dp174
g23
g24
(g28
S'i\x94\xd2E\xdd\xcd\xd9?'
p175
tp176
Rp177
sg9
g24
(g28
S'v\xd9e\x97]v\xe9?'
p178
tp179
Rp180
ssg10
(dp181
g23
g24
(g28
S'l5R\xaf`1\xd6?'
p182
tp183
Rp184
sg9
g24
(g28
S'\x87\x1bn\xb8\xe1\x86\xeb?'
p185
tp186
Rp187
ssg12
(dp188
g23
g24
(g28
S'\xa0\xefc>$\x01\xdc?'
p189
tp190
Rp191
sg9
g24
(g28
S'\xbe\xf7\xde{\xef\xbd\xe7?'
p192
tp193
Rp194
ssg3
(dp195
g23
g24
(g28
S'\xbcsN\xb0a\x91\xc2?'
p196
tp197
Rp198
sg9
g24
(g28
S'P?\xfd\xf4\xd3O\xef?'
p199
tp200
Rp201
ssS'DCcEe'
p202
(dp203
g23
g24
(g28
S'\xe5\xec\x92\xec\x91\xaf\xdf?'
p204
tp205
Rp206
sg9
g24
(g28
S'\x87\x1bn\xb8\xe1\x86\xdb?'
p207
tp208
Rp209
ssg18
(dp210
g23
g24
(g28
S'4\xccI9\x86K\xda?'
p211
tp212
Rp213
sg9
g24
(g28
S'\x1ey\xe4\x91G\x1e\xe9?'
p214
tp215
Rp216
sssS'DecisionTreeClassifier-binarize'
p217
(dp218
g3
(dp219
g5
F1.0
sg6
F1.0
sg7
F1.0
sg8
F0.0
sg9
F1.0
ssg10
(dp220
g5
F0.9655172413793104
sg6
F0.9545454545454547
sg7
F0.9438202247191011
sg8
F0.8333333333333334
sg9
F0.9139784946236559
ssg12
(dp221
g5
F0.963855421686747
sg6
F0.9638554216867469
sg7
F0.963855421686747
sg8
F0.3
sg9
F0.9354838709677419
ssg14
(dp222
g5
F0.9833333333333333
sg6
F0.9833333333333334
sg7
F0.9833333333333333
sg8
F0.030303030303030304
sg9
F0.978494623655914
ssS'DCcEe'
p223
(dp224
g9
F0.6344086021505376
ssg18
(dp225
g5
F0.65625
sg6
F0.65625
sg7
F0.65625
sg8
F0.18032786885245902
sg9
F0.7634408602150538
sssS'SVC-identity'
p226
(dp227
g14
(dp228
g23
g24
(g28
S'x\x02\xfe\x1aZ\xc2\xda?'
p229
tp230
Rp231
sg9
g24
(g28
S'\xc6\x18c\x8c1\xc6\xe8?'
p232
tp233
Rp234
ssg10
(dp235
g23
g24
(g28
S'l5R\xaf`1\xd6?'
p236
tp237
Rp238
sg9
g24
(g28
S'\x87\x1bn\xb8\xe1\x86\xeb?'
p239
tp240
Rp241
ssg12
(dp242
g23
g24
(g28
S'\x1d\xa0tx\xb22\xdb?'
p243
tp244
Rp245
sg9
g24
(g28
S'n\xb8\xe1\x86\x1bn\xe8?'
p246
tp247
Rp248
ssg3
(dp249
g23
g24
(g28
S'K7r\xa7\x9a\x9d\xc6?'
p250
tp251
Rp252
sg9
g24
(g28
S'\xf8\xde{\xef\xbd\xf7\xee?'
p253
tp254
Rp255
ssS'DCcEe'
p256
(dp257
g23
g24
(g28
S'\x93\xc7P\xeb\xf8u\xdf?'
p258
tp259
Rp260
sg9
g24
(g28
S"'\x9ah\xa2\x89&\xda?"
p261
tp262
Rp263
ssg18
(dp264
g23
g24
(g28
S'\xca\xc1\x8f\x1c\xe1\xe2\xd6?'
p265
tp266
Rp267
sg9
g24
(g28
S'/\xbb\xec\xb2\xcb.\xeb?'
p268
tp269
Rp270
sssS'RandomForestClassifier-binarize'
p271
(dp272
g3
(dp273
g5
F1.0
sg6
F1.0
sg7
F1.0
sg8
F0.0
sg9
F1.0
ssg10
(dp274
g5
F0.9655172413793104
sg6
F0.9491525423728815
sg7
F0.9333333333333333
sg8
F1.0
sg9
F0.9032258064516129
ssg12
(dp275
g5
F0.9759036144578314
sg6
F0.9585798816568047
sg7
F0.9418604651162791
sg8
F0.5
sg9
F0.9247311827956989
ssg14
(dp276
g5
F0.9833333333333333
sg6
F0.9833333333333334
sg7
F0.9833333333333333
sg8
F0.030303030303030304
sg9
F0.978494623655914
ssS'DCcEe'
p277
(dp278
g9
F0.6021505376344086
ssg18
(dp279
g5
F0.40625
sg6
F0.5098039215686274
sg7
F0.6842105263157895
sg8
F0.09836065573770492
sg9
F0.7311827956989247
sssS'LogisticRegression-binarize'
p280
(dp281
g3
(dp282
g5
F1.0
sg6
F1.0
sg7
F1.0
sg8
F0.0
sg9
F1.0
ssg10
(dp283
g5
F0.9885057471264368
sg6
F0.9608938547486033
sg7
F0.9347826086956522
sg8
F1.0
sg9
F0.9247311827956989
ssg12
(dp284
g5
F1.0
sg6
F0.9764705882352941
sg7
F0.9540229885057471
sg8
F0.4
sg9
F0.956989247311828
ssg14
(dp285
g5
F1.0
sg6
F1.0
sg7
F1.0
sg8
F0.0
sg9
F1.0
ssS'DCcEe'
p286
(dp287
g9
F0.7634408602150538
ssg18
(dp288
g5
F0.8125
sg6
F0.8
sg7
F0.7878787878787878
sg8
F0.11475409836065574
sg9
F0.8602150537634409
sss.