(dp0
S'SVC-binarize'
p1
(dp2
S'c'
p3
(dp4
S'recall'
p5
F0.7222222222222222
sS'F-measure'
p6
F0.7591240875912408
sS'precision'
p7
F0.8
sS'FP-rate'
p8
F0.6190476190476191
sS'accuracy'
p9
F0.6451612903225806
ssS'e'
p10
(dp11
g5
F0.9310344827586207
sg6
F0.9310344827586206
sg7
F0.9310344827586207
sg8
F1.0
sg9
F0.8709677419354839
ssS'D'
p12
(dp13
g5
F0.8674698795180723
sg6
F0.8780487804878049
sg7
F0.8888888888888888
sg8
F0.9
sg9
F0.7849462365591398
ssS'C'
p14
(dp15
g5
F0.7
sg6
F0.6885245901639343
sg7
F0.6774193548387096
sg8
F0.6060606060606061
sg9
F0.5913978494623656
ssS'DCcEe'
p16
(dp17
g9
F0.16129032258064516
ssS'E'
p18
(dp19
g5
F0.34375
sg6
F0.3333333333333333
sg7
F0.3235294117647059
sg8
F0.3770491803278688
sg9
F0.5268817204301075
sssS'DecisionTreeClassifier-identity'
p20
(dp21
g14
(dp22
S'std'
p23
cnumpy.core.multiarray
scalar
p24
(cnumpy
dtype
p25
(S'f8'
p26
I0
I1
tp27
Rp28
(I3
S'<'
p29
NNNI-1
I-1
I0
tp30
bS'\x8f\xe6\x82%k,\xdf?'
p31
tp32
Rp33
sg9
g24
(g28
S'\xc6\x18c\x8c1\xc6\xd8?'
p34
tp35
Rp36
ssg10
(dp37
g23
g24
(g28
S'\x8d\xa5\x18i\xc2_\xdc?'
p38
tp39
Rp40
sg9
g24
(g28
S'f\x97]v\xd9e\xe7?'
p41
tp42
Rp43
ssg12
(dp44
g23
g24
(g28
S'=q\x1c\x07\x89g\xde?'
p45
tp46
Rp47
sg9
g24
(g28
S'\xfd\xf4\xd3O?\xfd\xe4?'
p48
tp49
Rp50
ssg3
(dp51
g23
g24
(g28
S'\x8c\x96v9)\x9f\xde?'
p52
tp53
Rp54
sg9
g24
(g28
S'\xa5\x94RJ)\xa5\xe4?'
p55
tp56
Rp57
ssS'DCcEe'
p58
(dp59
g23
g24
(g28
S'\xf7\xce\xe8\x98\x80\xe2\xd0?'
p60
tp61
Rp62
sg9
g24
(g28
S'E\x13M4\xd1D\xb3?'
p63
tp64
Rp65
ssg18
(dp66
g23
g24
(g28
S'v\xffi\xb1~\xc6\xdf?'
p67
tp68
Rp69
sg9
g24
(g28
S'\xe4\x91G\x1ey\xe4\xe1?'
p70
tp71
Rp72
sssS'GradientBoostingClassifier-binarize'
p73
(dp74
g3
(dp75
g5
F0.9444444444444444
sg6
F0.8553459119496857
sg7
F0.7816091954022989
sg8
F0.9047619047619048
sg9
F0.7526881720430108
ssg10
(dp76
g5
F0.9310344827586207
sg6
F0.9310344827586206
sg7
F0.9310344827586207
sg8
F1.0
sg9
F0.8709677419354839
ssg12
(dp77
g5
F0.9759036144578314
sg6
F0.9418604651162792
sg7
F0.9101123595505618
sg8
F0.8
sg9
F0.8924731182795699
ssg14
(dp78
g5
F0.7
sg6
F0.65625
sg7
F0.6176470588235294
sg8
F0.7878787878787878
sg9
F0.5268817204301075
ssS'DCcEe'
p79
(dp80
g9
F0.1935483870967742
ssg18
(dp81
g5
F0.1875
sg6
F0.23076923076923078
sg7
F0.3
sg8
F0.22950819672131148
sg9
F0.5698924731182796
sssS'LogisticRegression-identity'
p82
(dp83
g14
(dp84
g23
g24
(g28
S'\xb5\x9b\x83\xc2\x86\xff\xdf?'
p85
tp86
Rp87
sg9
g24
(g28
S',\xb0\xc0\x02\x0b,\xe0?'
p88
tp89
Rp90
ssg10
(dp91
g23
g24
(g28
S'[;\xc0/\x80t\xd5?'
p92
tp93
Rp94
sg9
g24
(g28
S'\xdf{\xef\xbd\xf7\xde\xeb?'
p95
tp96
Rp97
ssg12
(dp98
g23
g24
(g28
S'h\xeb\xc3$\xed\xea\xdd?'
p99
tp100
Rp101
sg9
g24
(g28
S'\xad\xb5\xd6Zk\xad\xe5?'
p102
tp103
Rp104
ssg3
(dp105
g23
g24
(g28
S'\x19\xbce\x97\xc1[\xdd?'
p106
tp107
Rp108
sg9
g24
(g28
S'^v\xd9e\x97]\xe6?'
p109
tp110
Rp111
ssS'DCcEe'
p112
(dp113
g23
g24
(g28
S'\x91ah*\xee\xeb\xd2?'
p114
tp115
Rp116
sg9
g24
(g28
S'\xc6\x18c\x8c1\xc6\xb8?'
p117
tp118
Rp119
ssg18
(dp120
g23
g24
(g28
S'u\xffi\xb1~\xc6\xdf?'
p121
tp122
Rp123
sg9
g24
(g28
S'\xe4\x91G\x1ey\xe4\xe1?'
p124
tp125
Rp126
sssS'GradientBoostingClassifier-identity'
p127
(dp128
g14
(dp129
g23
g24
(g28
S'\x9fF\\`v\xd2\xde?'
p130
tp131
Rp132
sg9
g24
(g28
S'f\x97]v\xd9e\xd7?'
p133
tp134
Rp135
ssg10
(dp136
g23
g24
(g28
S'g\x94\xd2E\xdd\xcd\xd9?'
p137
tp138
Rp139
sg9
g24
(g28
S'v\xd9e\x97]v\xe9?'
p140
tp141
Rp142
ssg12
(dp143
g23
g24
(g28
S'\xc5Z\xbcP\xb9\xa5\xdd?'
p144
tp145
Rp146
sg9
g24
(g28
S'\x06\x16X`\x81\x05\xe6?'
p147
tp148
Rp149
ssg3
(dp150
g23
g24
(g28
S'\x8b\xa5\x18i\xc2_\xdc?'
p151
tp152
Rp153
sg9
g24
(g28
S'f\x97]v\xd9e\xe7?'
p154
tp155
Rp156
ssS'DCcEe'
p157
(dp158
g23
g24
(g28
S'\xafh*\xa3w\xd3\xd3?'
p159
tp160
Rp161
sg9
g24
(g28
S'\x87\x1bn\xb8\xe1\x86\xbb?'
p162
tp163
Rp164
ssg18
(dp165
g23
g24
(g28
S'#\xc6\x8f\xfe\xbd\x94\xdf?'
p166
tp167
Rp168
sg9
g24
(g28
S'\x95RJ)\xa5\x94\xe2?'
p169
tp170
Rp171
sssS'RandomForestClassifier-identity'
p172
(dp173
g14
(dp174
g23
g24
(g28
S'$I\xff\x95\xbc\xfb\xdf?'
p175
tp176
Rp177
sg9
g24
(g28
S'\xf8\xde{\xef\xbd\xf7\xde?'
p178
tp179
Rp180
ssg10
(dp181
g23
g24
(g28
S'l5R\xaf`1\xd6?'
p182
tp183
Rp184
sg9
g24
(g28
S'\x87\x1bn\xb8\xe1\x86\xeb?'
p185
tp186
Rp187
ssg12
(dp188
g23
g24
(g28
S'\xbb\xd1\x96\xd4\xf0\xb8\xdc?'
p189
tp190
Rp191
sg9
g24
(g28
S'\x0e7\xdcp\xc3\r\xe7?'
p192
tp193
Rp194
ssg3
(dp195
g23
g24
(g28
S'\xd2\x1a\x93\x92\xe1\x0c\xdd?'
p196
tp197
Rp198
sg9
g24
(g28
S'\xb6\xd6Zk\xad\xb5\xe6?'
p199
tp200
Rp201
ssS'DCcEe'
p202
(dp203
g23
g24
(g28
S'\xafh*\xa3w\xd3\xd3?'
p204
tp205
Rp206
sg9
g24
(g28
S'\x87\x1bn\xb8\xe1\x86\xbb?'
p207
tp208
Rp209
ssg18
(dp210
g23
g24
(g28
S'"\xc6\x8f\xfe\xbd\x94\xdf?'
p211
tp212
Rp213
sg9
g24
(g28
S'\x95RJ)\xa5\x94\xe2?'
p214
tp215
Rp216
sssS'DecisionTreeClassifier-binarize'
p217
(dp218
g3
(dp219
g5
F0.7083333333333334
sg6
F0.723404255319149
sg7
F0.7391304347826086
sg8
F0.8571428571428571
sg9
F0.5806451612903226
ssg10
(dp220
g5
F0.8850574712643678
sg6
F0.9058823529411765
sg7
F0.927710843373494
sg8
F1.0
sg9
F0.8279569892473119
ssg12
(dp221
g5
F0.9156626506024096
sg6
F0.9101796407185629
sg7
F0.9047619047619048
sg8
F0.8
sg9
F0.8387096774193549
ssg14
(dp222
g5
F0.5
sg6
F0.5263157894736842
sg7
F0.5555555555555556
sg8
F0.7272727272727273
sg9
F0.41935483870967744
ssS'DCcEe'
p223
(dp224
g9
F0.03225806451612903
ssg18
(dp225
g5
F0.34375
sg6
F0.3333333333333333
sg7
F0.3235294117647059
sg8
F0.3770491803278688
sg9
F0.5268817204301075
sssS'SVC-identity'
p226
(dp227
g14
(dp228
g23
g24
(g28
S'\xe4\xec\x92\xec\x91\xaf\xdf?'
p229
tp230
Rp231
sg9
g24
(g28
S'\x87\x1bn\xb8\xe1\x86\xdb?'
p232
tp233
Rp234
ssg10
(dp235
g23
g24
(g28
S'\x1d\xa0tx\xb22\xdb?'
p236
tp237
Rp238
sg9
g24
(g28
S'n\xb8\xe1\x86\x1bn\xe8?'
p239
tp240
Rp241
ssg12
(dp242
g23
g24
(g28
S'#\xc6\x8f\xfe\xbd\x94\xdf?'
p243
tp244
Rp245
sg9
g24
(g28
S'\x95RJ)\xa5\x94\xe2?'
p246
tp247
Rp248
ssg3
(dp249
g23
g24
(g28
S'\x9fF\\`v\xd2\xde?'
p250
tp251
Rp252
sg9
g24
(g28
S'M4\xd1D\x13M\xe4?'
p253
tp254
Rp255
ssS'DCcEe'
p256
(dp257
g23
g24
(g28
S'\xaeh*\xa3w\xd3\xd3?'
p258
tp259
Rp260
sg9
g24
(g28
S'\x87\x1bn\xb8\xe1\x86\xbb?'
p261
tp262
Rp263
ssg18
(dp264
g23
g24
(g28
S'\xe4\xec\x92\xec\x91\xaf\xdf?'
p265
tp266
Rp267
sg9
g24
(g28
S'=\xf2\xc8#\x8f<\xe2?'
p268
tp269
Rp270
sssS'RandomForestClassifier-binarize'
p271
(dp272
g3
(dp273
g5
F0.875
sg6
F0.8181818181818181
sg7
F0.7682926829268293
sg8
F0.9047619047619048
sg9
F0.6989247311827957
ssg10
(dp274
g5
F0.9655172413793104
sg6
F0.9491525423728815
sg7
F0.9333333333333333
sg8
F1.0
sg9
F0.9032258064516129
ssg12
(dp275
g5
F0.9518072289156626
sg6
F0.9239766081871346
sg7
F0.8977272727272727
sg8
F0.9
sg9
F0.8602150537634409
ssg14
(dp276
g5
F0.7166666666666667
sg6
F0.6825396825396826
sg7
F0.6515151515151515
sg8
F0.696969696969697
sg9
F0.5698924731182796
ssS'DCcEe'
p277
(dp278
g9
F0.1827956989247312
ssg18
(dp279
g5
F0.25
sg6
F0.34782608695652173
sg7
F0.5714285714285714
sg8
F0.09836065573770492
sg9
F0.6774193548387096
sssS'LogisticRegression-binarize'
p280
(dp281
g3
(dp282
g5
F0.9027777777777778
sg6
F0.8496732026143791
sg7
F0.8024691358024691
sg8
F0.7619047619047619
sg9
F0.7526881720430108
ssg10
(dp283
g5
F0.9885057471264368
sg6
F0.9608938547486033
sg7
F0.9347826086956522
sg8
F1.0
sg9
F0.9247311827956989
ssg12
(dp284
g5
F0.9879518072289156
sg6
F0.9425287356321839
sg7
F0.9010989010989011
sg8
F0.9
sg9
F0.8924731182795699
ssg14
(dp285
g5
F0.7833333333333333
sg6
F0.7642276422764227
sg7
F0.746031746031746
sg8
F0.48484848484848486
sg9
F0.6881720430107527
ssS'DCcEe'
p286
(dp287
g9
F0.23655913978494625
ssg18
(dp288
g5
F0.28125
sg6
F0.3050847457627119
sg7
F0.3333333333333333
sg8
F0.29508196721311475
sg9
F0.5591397849462365
sss.