(dp0
S'SVC-binarize'
p1
(dp2
S'c'
p3
(dp4
S'recall'
p5
F1.0
sS'F-measure'
p6
F1.0
sS'precision'
p7
F1.0
sS'FP-rate'
p8
F0.0
sS'accuracy'
p9
F1.0
ssS'e'
p10
(dp11
g5
F1.0
sg6
F1.0
sg7
F1.0
sg8
F0.0
sg9
F1.0
ssS'D'
p12
(dp13
g5
F1.0
sg6
F1.0
sg7
F1.0
sg8
F0.0
sg9
F1.0
ssS'C'
p14
(dp15
g5
F1.0
sg6
F0.9917355371900827
sg7
F0.9836065573770492
sg8
F0.030303030303030304
sg9
F0.989247311827957
ssS'DCcEe'
p16
(dp17
g9
F0.9032258064516129
ssS'E'
p18
(dp19
g5
F0.875
sg6
F0.875
sg7
F0.875
sg8
F0.06557377049180328
sg9
F0.9139784946236559
sssS'DecisionTreeClassifier-identity'
p20
(dp21
g14
(dp22
S'std'
p23
cnumpy.core.multiarray
scalar
p24
(cnumpy
dtype
p25
(S'f8'
p26
I0
I1
tp27
Rp28
(I3
S'<'
p29
NNNI-1
I-1
I0
tp30
bS'x\x02\xfe\x1aZ\xc2\xda?'
p31
tp32
Rp33
sg9
g24
(g28
S'\xc6\x18c\x8c1\xc6\xe8?'
p34
tp35
Rp36
ssg10
(dp37
g23
g24
(g28
S'\xf9\xe2\xd2q\xde\x9c\xdb?'
p38
tp39
Rp40
sg9
g24
(g28
S'\x16X`\x81\x05\x16\xe8?'
p41
tp42
Rp43
ssg12
(dp44
g23
g24
(g28
S'\xc5Z\xbcP\xb9\xa5\xdd?'
p45
tp46
Rp47
sg9
g24
(g28
S'\x06\x16X`\x81\x05\xe6?'
p48
tp49
Rp50
ssg3
(dp51
g23
g24
(g28
S'\xedo\xf5*\x1er\xcf?'
p52
tp53
Rp54
sg9
g24
(g28
S'\xef\xbd\xf7\xde{\xef\xed?'
p55
tp56
Rp57
ssS'DCcEe'
p58
(dp59
g23
g24
(g28
S'\x91\xe6\x82%k,\xdf?'
p60
tp61
Rp62
sg9
g24
(g28
S'\xc6\x18c\x8c1\xc6\xd8?'
p63
tp64
Rp65
ssg18
(dp66
g23
g24
(g28
S'l5R\xaf`1\xd6?'
p67
tp68
Rp69
sg9
g24
(g28
S'\x87\x1bn\xb8\xe1\x86\xeb?'
p70
tp71
Rp72
sssS'LogisticRegression-identity'
p73
(dp74
g14
(dp75
g23
g24
(g28
S'\x8c\xa5\x18i\xc2_\xdc?'
p76
tp77
Rp78
sg9
g24
(g28
S'f\x97]v\xd9e\xe7?'
p79
tp80
Rp81
ssg10
(dp82
g23
g24
(g28
S'\x92ah*\xee\xeb\xd2?'
p83
tp84
Rp85
sg9
g24
(g28
S'\xe7\x9cs\xce9\xe7\xec?'
p86
tp87
Rp88
ssg12
(dp89
g23
g24
(g28
S"\x8e\xd6\xcc\x15\x9d'\xd8?"
p90
tp91
Rp92
sg9
g24
(g28
S'\x7f\xfa\xe9\xa7\x9f~\xea?'
p93
tp94
Rp95
ssg3
(dp96
g23
g24
(g28
S'\xbcsN\xb0a\x91\xc2?'
p97
tp98
Rp99
sg9
g24
(g28
S'P?\xfd\xf4\xd3O\xef?'
p100
tp101
Rp102
ssS'DCcEe'
p103
(dp104
g23
g24
(g28
S'@\xdb\xc5\xe3&\xf4\xdf?'
p105
tp106
Rp107
sg9
g24
(g28
S'\xdcp\xc3\r7\xdc\xe0?'
p108
tp109
Rp110
ssg18
(dp111
g23
g24
(g28
S'z\x88H<\x01\xf2\xd1?'
p112
tp113
Rp114
sg9
g24
(g28
S'?\xfd\xf4\xd3O?\xed?'
p115
tp116
Rp117
sssS'RandomForestClassifier-identity'
p118
(dp119
g14
(dp120
g23
g24
(g28
S'\xf8\xe2\xd2q\xde\x9c\xdb?'
p121
tp122
Rp123
sg9
g24
(g28
S'\x16X`\x81\x05\x16\xe8?'
p124
tp125
Rp126
ssg10
(dp127
g23
g24
(g28
S'l5R\xaf`1\xd6?'
p128
tp129
Rp130
sg9
g24
(g28
S'\x87\x1bn\xb8\xe1\x86\xeb?'
p131
tp132
Rp133
ssg12
(dp134
g23
g24
(g28
S'g\x94\xd2E\xdd\xcd\xd9?'
p135
tp136
Rp137
sg9
g24
(g28
S'v\xd9e\x97]v\xe9?'
p138
tp139
Rp140
ssg3
(dp141
g23
g24
(g28
S'\xbcsN\xb0a\x91\xc2?'
p142
tp143
Rp144
sg9
g24
(g28
S'P?\xfd\xf4\xd3O\xef?'
p145
tp146
Rp147
ssS'DCcEe'
p148
(dp149
g23
g24
(g28
S'\x94\xc7P\xeb\xf8u\xdf?'
p150
tp151
Rp152
sg9
g24
(g28
S"'\x9ah\xa2\x89&\xda?"
p153
tp154
Rp155
ssg18
(dp156
g23
g24
(g28
S'w\x02\xfe\x1aZ\xc2\xda?'
p157
tp158
Rp159
sg9
g24
(g28
S'\xc6\x18c\x8c1\xc6\xe8?'
p160
tp161
Rp162
sssS'DecisionTreeClassifier-binarize'
p163
(dp164
g3
(dp165
g5
F1.0
sg6
F1.0
sg7
F1.0
sg8
F0.0
sg9
F1.0
ssg10
(dp166
g5
F0.896551724137931
sg6
F0.9285714285714284
sg7
F0.9629629629629629
sg8
F0.5
sg9
F0.8709677419354839
ssg12
(dp167
g5
F0.963855421686747
sg6
F0.9815950920245399
sg7
F1.0
sg8
F0.0
sg9
F0.967741935483871
ssg14
(dp168
g5
F0.9833333333333333
sg6
F0.9833333333333334
sg7
F0.9833333333333333
sg8
F0.030303030303030304
sg9
F0.978494623655914
ssS'DCcEe'
p169
(dp170
g9
F0.7849462365591398
ssg18
(dp171
g5
F0.84375
sg6
F0.8999999999999999
sg7
F0.9642857142857143
sg8
F0.01639344262295082
sg9
F0.9354838709677419
sssS'SVC-identity'
p172
(dp173
g14
(dp174
g23
g24
(g28
S'\xd1\x1a\x93\x92\xe1\x0c\xdd?'
p175
tp176
Rp177
sg9
g24
(g28
S'\xb6\xd6Zk\xad\xb5\xe6?'
p178
tp179
Rp180
ssg10
(dp181
g23
g24
(g28
S'\x9e\xa0l\xf7\xd4\xde\xcc?'
p182
tp183
Rp184
sg9
g24
(g28
S'H\x1ey\xe4\x91G\xee?'
p185
tp186
Rp187
ssg12
(dp188
g23
g24
(g28
S"\x8e\xd6\xcc\x15\x9d'\xd8?"
p189
tp190
Rp191
sg9
g24
(g28
S'\x7f\xfa\xe9\xa7\x9f~\xea?'
p192
tp193
Rp194
ssg3
(dp195
g23
g24
(g28
S'\xbcsN\xb0a\x91\xc2?'
p196
tp197
Rp198
sg9
g24
(g28
S'P?\xfd\xf4\xd3O\xef?'
p199
tp200
Rp201
ssS'DCcEe'
p202
(dp203
g23
g24
(g28
S'\x92\xe8\x9d\xba\x8c\xd9\xdf?'
p204
tp205
Rp206
sg9
g24
(g28
S'\x8c1\xc6\x18c\x8c\xe1?'
p207
tp208
Rp209
ssg18
(dp210
g23
g24
(g28
S'\x91ah*\xee\xeb\xd2?'
p211
tp212
Rp213
sg9
g24
(g28
S'\xe7\x9cs\xce9\xe7\xec?'
p214
tp215
Rp216
sssS'RandomForestClassifier-binarize'
p217
(dp218
g3
(dp219
g5
F1.0
sg6
F1.0
sg7
F1.0
sg8
F0.0
sg9
F1.0
ssg10
(dp220
g5
F0.9885057471264368
sg6
F0.9828571428571429
sg7
F0.9772727272727273
sg8
F0.3333333333333333
sg9
F0.967741935483871
ssg12
(dp221
g5
F0.9879518072289156
sg6
F0.9820359281437125
sg7
F0.9761904761904762
sg8
F0.2
sg9
F0.967741935483871
ssg14
(dp222
g5
F1.0
sg6
F0.9756097560975611
sg7
F0.9523809523809523
sg8
F0.09090909090909091
sg9
F0.967741935483871
ssS'DCcEe'
p223
(dp224
g9
F0.7311827956989247
ssg18
(dp225
g5
F0.59375
sg6
F0.6666666666666666
sg7
F0.76
sg8
F0.09836065573770492
sg9
F0.7956989247311828
sssS'LogisticRegression-binarize'
p226
(dp227
g3
(dp228
g5
F1.0
sg6
F1.0
sg7
F1.0
sg8
F0.0
sg9
F1.0
ssg10
(dp229
g5
F0.9885057471264368
sg6
F0.9662921348314606
sg7
F0.945054945054945
sg8
F0.8333333333333334
sg9
F0.9354838709677419
ssg12
(dp230
g5
F1.0
sg6
F1.0
sg7
F1.0
sg8
F0.0
sg9
F1.0
ssg14
(dp231
g5
F1.0
sg6
F0.9836065573770493
sg7
F0.967741935483871
sg8
F0.06060606060606061
sg9
F0.978494623655914
ssS'DCcEe'
p232
(dp233
g9
F0.8494623655913979
ssg18
(dp234
g5
F0.875
sg6
F0.9032258064516129
sg7
F0.9333333333333333
sg8
F0.03278688524590164
sg9
F0.9354838709677419
sss.