(dp0
S'SVC-binarize'
p1
(dp2
S'c'
p3
(dp4
S'recall'
p5
F1.0
sS'F-measure'
p6
F1.0
sS'precision'
p7
F1.0
sS'FP-rate'
p8
F0.0
sS'accuracy'
p9
F1.0
ssS'e'
p10
(dp11
g5
F1.0
sg6
F0.9666666666666666
sg7
F0.9354838709677419
sg8
F1.0
sg9
F0.9354838709677419
ssS'D'
p12
(dp13
g5
F1.0
sg6
F0.9431818181818183
sg7
F0.8924731182795699
sg8
F1.0
sg9
F0.8924731182795699
ssS'C'
p14
(dp15
g5
F0.8833333333333333
sg6
F0.9059829059829061
sg7
F0.9298245614035088
sg8
F0.12121212121212122
sg9
F0.8817204301075269
ssS'DCcEe'
p16
(dp17
g9
F0.5268817204301075
ssS'E'
p18
(dp19
g5
F0.5
sg6
F0.64
sg7
F0.8888888888888888
sg8
F0.03278688524590164
sg9
F0.8064516129032258
sssS'DecisionTreeClassifier-identity'
p20
(dp21
g14
(dp22
S'std'
p23
cnumpy.core.multiarray
scalar
p24
(cnumpy
dtype
p25
(S'f8'
p26
I0
I1
tp27
Rp28
(I3
S'<'
p29
NNNI-1
I-1
I0
tp30
bS'\xd1\x1a\x93\x92\xe1\x0c\xdd?'
p31
tp32
Rp33
sg9
g24
(g28
S'\xb6\xd6Zk\xad\xb5\xe6?'
p34
tp35
Rp36
ssg10
(dp37
g23
g24
(g28
S'\xfb\xcf,d\xf9H\xd9?'
p38
tp39
Rp40
sg9
g24
(g28
S'\xce9\xe7\x9cs\xce\xe9?'
p41
tp42
Rp43
ssg12
(dp44
g23
g24
(g28
S'\x8c\xa5\x18i\xc2_\xdc?'
p45
tp46
Rp47
sg9
g24
(g28
S'f\x97]v\xd9e\xe7?'
p48
tp49
Rp50
ssg3
(dp51
g23
g24
(g28
S'\xbcsN\xb0a\x91\xc2?'
p52
tp53
Rp54
sg9
g24
(g28
S'P?\xfd\xf4\xd3O\xef?'
p55
tp56
Rp57
ssS'DCcEe'
p58
(dp59
g23
g24
(g28
S' \xa0tx\xb22\xdb?'
p60
tp61
Rp62
sg9
g24
(g28
S'H\x1ey\xe4\x91G\xce?'
p63
tp64
Rp65
ssg18
(dp66
g23
g24
(g28
S'w\x02\xfe\x1aZ\xc2\xda?'
p67
tp68
Rp69
sg9
g24
(g28
S'\xc6\x18c\x8c1\xc6\xe8?'
p70
tp71
Rp72
sssS'GradientBoostingClassifier-binarize'
p73
(dp74
g3
(dp75
g5
F1.0
sg6
F1.0
sg7
F1.0
sg8
F0.0
sg9
F1.0
ssg10
(dp76
g5
F0.9310344827586207
sg6
F0.9310344827586206
sg7
F0.9310344827586207
sg8
F1.0
sg9
F0.8709677419354839
ssg12
(dp77
g5
F1.0
sg6
F0.9431818181818183
sg7
F0.8924731182795699
sg8
F1.0
sg9
F0.8924731182795699
ssg14
(dp78
g5
F0.8833333333333333
sg6
F0.8983050847457628
sg7
F0.9137931034482759
sg8
F0.15151515151515152
sg9
F0.8709677419354839
ssS'DCcEe'
p79
(dp80
g9
F0.4731182795698925
ssg18
(dp81
g5
F0.5
sg6
F0.64
sg7
F0.8888888888888888
sg8
F0.03278688524590164
sg9
F0.8064516129032258
sssS'LogisticRegression-identity'
p82
(dp83
g14
(dp84
g23
g24
(g28
S'\x8c\xa5\x18i\xc2_\xdc?'
p85
tp86
Rp87
sg9
g24
(g28
S'f\x97]v\xd9e\xe7?'
p88
tp89
Rp90
ssg10
(dp91
g23
g24
(g28
S'!\xdbs\xca\x07\xab\xd4?'
p92
tp93
Rp94
sg9
g24
(g28
S'7\xdcp\xc3\r7\xec?'
p95
tp96
Rp97
ssg12
(dp98
g23
g24
(g28
S'\x9f\xefc>$\x01\xdc?'
p99
tp100
Rp101
sg9
g24
(g28
S'\xbe\xf7\xde{\xef\xbd\xe7?'
p102
tp103
Rp104
ssg3
(dp105
g23
g24
(g28
S'\xbcsN\xb0a\x91\xc2?'
p106
tp107
Rp108
sg9
g24
(g28
S'P?\xfd\xf4\xd3O\xef?'
p109
tp110
Rp111
ssS'DCcEe'
p112
(dp113
g23
g24
(g28
S'=q\x1c\x07\x89g\xde?'
p114
tp115
Rp116
sg9
g24
(g28
S'\x06\x16X`\x81\x05\xd6?'
p117
tp118
Rp119
ssg18
(dp120
g23
g24
(g28
S'\xfb\xcf,d\xf9H\xd9?'
p121
tp122
Rp123
sg9
g24
(g28
S'\xce9\xe7\x9cs\xce\xe9?'
p124
tp125
Rp126
sssS'GradientBoostingClassifier-identity'
p127
(dp128
g14
(dp129
g23
g24
(g28
S'\xbb\xd1\x96\xd4\xf0\xb8\xdc?'
p130
tp131
Rp132
sg9
g24
(g28
S'\x0e7\xdcp\xc3\r\xe7?'
p133
tp134
Rp135
ssg10
(dp136
g23
g24
(g28
S'_\xe6\xdc\rf\xbc\xd8?'
p137
tp138
Rp139
sg9
g24
(g28
S"'\x9ah\xa2\x89&\xea?"
p140
tp141
Rp142
ssg12
(dp143
g23
g24
(g28
S'\x9f\xefc>$\x01\xdc?'
p144
tp145
Rp146
sg9
g24
(g28
S'\xbe\xf7\xde{\xef\xbd\xe7?'
p147
tp148
Rp149
ssg3
(dp150
g23
g24
(g28
S'\xbcsN\xb0a\x91\xc2?'
p151
tp152
Rp153
sg9
g24
(g28
S'P?\xfd\xf4\xd3O\xef?'
p154
tp155
Rp156
ssS'DCcEe'
p157
(dp158
g23
g24
(g28
S'\xd2\x1a\x93\x92\xe1\x0c\xdd?'
p159
tp160
Rp161
sg9
g24
(g28
S'\x95RJ)\xa5\x94\xd2?'
p162
tp163
Rp164
ssg18
(dp165
g23
g24
(g28
S'4\xccI9\x86K\xda?'
p166
tp167
Rp168
sg9
g24
(g28
S'\x1ey\xe4\x91G\x1e\xe9?'
p169
tp170
Rp171
sssS'RandomForestClassifier-identity'
p172
(dp173
g14
(dp174
g23
g24
(g28
S'\xd1\x1a\x93\x92\xe1\x0c\xdd?'
p175
tp176
Rp177
sg9
g24
(g28
S'\xb6\xd6Zk\xad\xb5\xe6?'
p178
tp179
Rp180
ssg10
(dp181
g23
g24
(g28
S'\x904D\xd2\x02\x8a\xd7?'
p182
tp183
Rp184
sg9
g24
(g28
S'\xd7Zk\xad\xb5\xd6\xea?'
p185
tp186
Rp187
ssg12
(dp188
g23
g24
(g28
S'\x19\xbce\x97\xc1[\xdd?'
p189
tp190
Rp191
sg9
g24
(g28
S'^v\xd9e\x97]\xe6?'
p192
tp193
Rp194
ssg3
(dp195
g23
g24
(g28
S'\xbcsN\xb0a\x91\xc2?'
p196
tp197
Rp198
sg9
g24
(g28
S'P?\xfd\xf4\xd3O\xef?'
p199
tp200
Rp201
ssS'DCcEe'
p202
(dp203
g23
g24
(g28
S'\xd2\x1a\x93\x92\xe1\x0c\xdd?'
p204
tp205
Rp206
sg9
g24
(g28
S'\x95RJ)\xa5\x94\xd2?'
p207
tp208
Rp209
ssg18
(dp210
g23
g24
(g28
S'x\x02\xfe\x1aZ\xc2\xda?'
p211
tp212
Rp213
sg9
g24
(g28
S'\xc6\x18c\x8c1\xc6\xe8?'
p214
tp215
Rp216
sssS'DecisionTreeClassifier-binarize'
p217
(dp218
g3
(dp219
g5
F1.0
sg6
F0.993103448275862
sg7
F0.9863013698630136
sg8
F0.047619047619047616
sg9
F0.989247311827957
ssg10
(dp220
g5
F0.9195402298850575
sg6
F0.92485549132948
sg7
F0.9302325581395349
sg8
F1.0
sg9
F0.8602150537634409
ssg12
(dp221
g5
F1.0
sg6
F0.9431818181818183
sg7
F0.8924731182795699
sg8
F1.0
sg9
F0.8924731182795699
ssg14
(dp222
g5
F0.8833333333333333
sg6
F0.9059829059829061
sg7
F0.9298245614035088
sg8
F0.12121212121212122
sg9
F0.8817204301075269
ssS'DCcEe'
p223
(dp224
g9
F0.45161290322580644
ssg18
(dp225
g5
F0.5
sg6
F0.6274509803921569
sg7
F0.8421052631578947
sg8
F0.04918032786885246
sg9
F0.7956989247311828
sssS'SVC-identity'
p226
(dp227
g14
(dp228
g23
g24
(g28
S'\xd1\x1a\x93\x92\xe1\x0c\xdd?'
p229
tp230
Rp231
sg9
g24
(g28
S'\xb6\xd6Zk\xad\xb5\xe6?'
p232
tp233
Rp234
ssg10
(dp235
g23
g24
(g28
S'!\xdbs\xca\x07\xab\xd4?'
p236
tp237
Rp238
sg9
g24
(g28
S'7\xdcp\xc3\r7\xec?'
p239
tp240
Rp241
ssg12
(dp242
g23
g24
(g28
S'\x9f\xefc>$\x01\xdc?'
p243
tp244
Rp245
sg9
g24
(g28
S'\xbe\xf7\xde{\xef\xbd\xe7?'
p246
tp247
Rp248
ssg3
(dp249
g23
g24
(g28
S'\xbcsN\xb0a\x91\xc2?'
p250
tp251
Rp252
sg9
g24
(g28
S'P?\xfd\xf4\xd3O\xef?'
p253
tp254
Rp255
ssS'DCcEe'
p256
(dp257
g23
g24
(g28
S'g\xfa\xfe\xdd}+\xde?'
p258
tp259
Rp260
sg9
g24
(g28
S'UUUUUU\xd5?'
p261
tp262
Rp263
ssg18
(dp264
g23
g24
(g28
S'i\x94\xd2E\xdd\xcd\xd9?'
p265
tp266
Rp267
sg9
g24
(g28
S'v\xd9e\x97]v\xe9?'
p268
tp269
Rp270
sssS'RandomForestClassifier-binarize'
p271
(dp272
g3
(dp273
g5
F1.0
sg6
F1.0
sg7
F1.0
sg8
F0.0
sg9
F1.0
ssg10
(dp274
g5
F0.9425287356321839
sg6
F0.9425287356321839
sg7
F0.9425287356321839
sg8
F0.8333333333333334
sg9
F0.8924731182795699
ssg12
(dp275
g5
F0.9879518072289156
sg6
F0.937142857142857
sg7
F0.8913043478260869
sg8
F1.0
sg9
F0.8817204301075269
ssg14
(dp276
g5
F0.8833333333333333
sg6
F0.9059829059829061
sg7
F0.9298245614035088
sg8
F0.12121212121212122
sg9
F0.8817204301075269
ssS'DCcEe'
p277
(dp278
g9
F0.5053763440860215
ssg18
(dp279
g5
F0.5
sg6
F0.64
sg7
F0.8888888888888888
sg8
F0.03278688524590164
sg9
F0.8064516129032258
sssS'LogisticRegression-binarize'
p280
(dp281
g3
(dp282
g5
F1.0
sg6
F0.993103448275862
sg7
F0.9863013698630136
sg8
F0.047619047619047616
sg9
F0.989247311827957
ssg10
(dp283
g5
F1.0
sg6
F0.9666666666666666
sg7
F0.9354838709677419
sg8
F1.0
sg9
F0.9354838709677419
ssg12
(dp284
g5
F1.0
sg6
F0.9431818181818183
sg7
F0.8924731182795699
sg8
F1.0
sg9
F0.8924731182795699
ssg14
(dp285
g5
F0.8833333333333333
sg6
F0.9059829059829061
sg7
F0.9298245614035088
sg8
F0.12121212121212122
sg9
F0.8817204301075269
ssS'DCcEe'
p286
(dp287
g9
F0.5268817204301075
ssg18
(dp288
g5
F0.5
sg6
F0.6530612244897959
sg7
F0.9411764705882353
sg8
F0.01639344262295082
sg9
F0.8172043010752689
sss.