(dp0
S'SVC-binarize'
p1
(dp2
S'c'
p3
(dp4
S'recall'
p5
F0.7916666666666666
sS'F-measure'
p6
F0.7916666666666665
sS'precision'
p7
F0.7916666666666666
sS'FP-rate'
p8
F0.7142857142857143
sS'accuracy'
p9
F0.6774193548387096
ssS'e'
p10
(dp11
g5
F0.8850574712643678
sg6
F0.9112426035502958
sg7
F0.9390243902439024
sg8
F0.8333333333333334
sg9
F0.8387096774193549
ssS'D'
p12
(dp13
g5
F0.8795180722891566
sg6
F0.8848484848484848
sg7
F0.8902439024390244
sg8
F0.9
sg9
F0.7956989247311828
ssS'C'
p14
(dp15
g5
F0.7666666666666667
sg6
F0.7603305785123966
sg7
F0.7540983606557377
sg8
F0.45454545454545453
sg9
F0.6881720430107527
ssS'DCcEe'
p16
(dp17
g9
F0.1827956989247312
ssS'E'
p18
(dp19
g5
F0.34375
sg6
F0.3333333333333333
sg7
F0.3235294117647059
sg8
F0.3770491803278688
sg9
F0.5268817204301075
sssS'DecisionTreeClassifier-identity'
p20
(dp21
g14
(dp22
S'std'
p23
cnumpy.core.multiarray
scalar
p24
(cnumpy
dtype
p25
(S'f8'
p26
I0
I1
tp27
Rp28
(I3
S'<'
p29
NNNI-1
I-1
I0
tp30
bS'#I\xff\x95\xbc\xfb\xdf?'
p31
tp32
Rp33
sg9
g24
(g28
S'\xf8\xde{\xef\xbd\xf7\xde?'
p34
tp35
Rp36
ssg10
(dp37
g23
g24
(g28
S'4\xccI9\x86K\xda?'
p38
tp39
Rp40
sg9
g24
(g28
S'\x1ey\xe4\x91G\x1e\xe9?'
p41
tp42
Rp43
ssg12
(dp44
g23
g24
(g28
S'\x8b\xa5\x18i\xc2_\xdc?'
p45
tp46
Rp47
sg9
g24
(g28
S'f\x97]v\xd9e\xe7?'
p48
tp49
Rp50
ssg3
(dp51
g23
g24
(g28
S'g\xeb\xc3$\xed\xea\xdd?'
p52
tp53
Rp54
sg9
g24
(g28
S'\xad\xb5\xd6Zk\xad\xe5?'
p55
tp56
Rp57
ssS'DCcEe'
p58
(dp59
g23
g24
(g28
S'\x914D\xd2\x02\x8a\xd7?'
p60
tp61
Rp62
sg9
g24
(g28
S'\xa5\x94RJ)\xa5\xc4?'
p63
tp64
Rp65
ssg18
(dp66
g23
g24
(g28
S'):\x0e\xf7\xc2\xe8\xdf?'
p67
tp68
Rp69
sg9
g24
(g28
S'4\xd1D\x13M4\xe1?'
p70
tp71
Rp72
sssS'GradientBoostingClassifier-binarize'
p73
(dp74
g3
(dp75
g5
F0.9027777777777778
sg6
F0.8552631578947368
sg7
F0.8125
sg8
F0.7142857142857143
sg9
F0.7634408602150538
ssg10
(dp76
g5
F0.9885057471264368
sg6
F0.9608938547486033
sg7
F0.9347826086956522
sg8
F1.0
sg9
F0.9247311827956989
ssg12
(dp77
g5
F0.963855421686747
sg6
F0.9302325581395348
sg7
F0.898876404494382
sg8
F0.9
sg9
F0.8709677419354839
ssg14
(dp78
g5
F0.75
sg6
F0.6976744186046513
sg7
F0.6521739130434783
sg8
F0.7272727272727273
sg9
F0.5806451612903226
ssS'DCcEe'
p79
(dp80
g9
F0.20430107526881722
ssg18
(dp81
g5
F0.28125
sg6
F0.28125
sg7
F0.28125
sg8
F0.3770491803278688
sg9
F0.5053763440860215
sssS'LogisticRegression-identity'
p82
(dp83
g14
(dp84
g23
g24
(g28
S'\xb4\x9b\x83\xc2\x86\xff\xdf?'
p85
tp86
Rp87
sg9
g24
(g28
S',\xb0\xc0\x02\x0b,\xe0?'
p88
tp89
Rp90
ssg10
(dp91
g23
g24
(g28
S'l5R\xaf`1\xd6?'
p92
tp93
Rp94
sg9
g24
(g28
S'\x87\x1bn\xb8\xe1\x86\xeb?'
p95
tp96
Rp97
ssg12
(dp98
g23
g24
(g28
S'\xc5Z\xbcP\xb9\xa5\xdd?'
p99
tp100
Rp101
sg9
g24
(g28
S'\x06\x16X`\x81\x05\xe6?'
p102
tp103
Rp104
ssg3
(dp105
g23
g24
(g28
S'\xd2\x1a\x93\x92\xe1\x0c\xdd?'
p106
tp107
Rp108
sg9
g24
(g28
S'\xb6\xd6Zk\xad\xb5\xe6?'
p109
tp110
Rp111
ssS'DCcEe'
p112
(dp113
g23
g24
(g28
S'l5R\xaf`1\xd6?'
p114
tp115
Rp116
sg9
g24
(g28
S'\xe4\x91G\x1ey\xe4\xc1?'
p117
tp118
Rp119
ssg18
(dp120
g23
g24
(g28
S'\x93\xc7P\xeb\xf8u\xdf?'
p121
tp122
Rp123
sg9
g24
(g28
S'\xed\xb2\xcb.\xbb\xec\xe2?'
p124
tp125
Rp126
sssS'GradientBoostingClassifier-identity'
p127
(dp128
g14
(dp129
g23
g24
(g28
S'\xb5\x9b\x83\xc2\x86\xff\xdf?'
p130
tp131
Rp132
sg9
g24
(g28
S'\xa8\x9f~\xfa\xe9\xa7\xdf?'
p133
tp134
Rp135
ssg10
(dp136
g23
g24
(g28
S'\xca\xc1\x8f\x1c\xe1\xe2\xd6?'
p137
tp138
Rp139
sg9
g24
(g28
S'/\xbb\xec\xb2\xcb.\xeb?'
p140
tp141
Rp142
ssg12
(dp143
g23
g24
(g28
S'\xd1\x1a\x93\x92\xe1\x0c\xdd?'
p144
tp145
Rp146
sg9
g24
(g28
S'\xb6\xd6Zk\xad\xb5\xe6?'
p147
tp148
Rp149
ssg3
(dp150
g23
g24
(g28
S'\xa0\xefc>$\x01\xdc?'
p151
tp152
Rp153
sg9
g24
(g28
S'\xbe\xf7\xde{\xef\xbd\xe7?'
p154
tp155
Rp156
ssS'DCcEe'
p157
(dp158
g23
g24
(g28
S'[;\xc0/\x80t\xd5?'
p159
tp160
Rp161
sg9
g24
(g28
S'\x84\x10B\x08!\x84\xc0?'
p162
tp163
Rp164
ssg18
(dp165
g23
g24
(g28
S'\xb5\x9b\x83\xc2\x86\xff\xdf?'
p166
tp167
Rp168
sg9
g24
(g28
S',\xb0\xc0\x02\x0b,\xe0?'
p169
tp170
Rp171
sssS'RandomForestClassifier-identity'
p172
(dp173
g14
(dp174
g23
g24
(g28
S'\xb5\x9b\x83\xc2\x86\xff\xdf?'
p175
tp176
Rp177
sg9
g24
(g28
S'\xa8\x9f~\xfa\xe9\xa7\xdf?'
p178
tp179
Rp180
ssg10
(dp181
g23
g24
(g28
S'l5R\xaf`1\xd6?'
p182
tp183
Rp184
sg9
g24
(g28
S'\x87\x1bn\xb8\xe1\x86\xeb?'
p185
tp186
Rp187
ssg12
(dp188
g23
g24
(g28
S'=q\x1c\x07\x89g\xde?'
p189
tp190
Rp191
sg9
g24
(g28
S'\xfd\xf4\xd3O?\xfd\xe4?'
p192
tp193
Rp194
ssg3
(dp195
g23
g24
(g28
S'\xd1\x1a\x93\x92\xe1\x0c\xdd?'
p196
tp197
Rp198
sg9
g24
(g28
S'\xb6\xd6Zk\xad\xb5\xe6?'
p199
tp200
Rp201
ssS'DCcEe'
p202
(dp203
g23
g24
(g28
S'\x92ah*\xee\xeb\xd2?'
p204
tp205
Rp206
sg9
g24
(g28
S'\xc6\x18c\x8c1\xc6\xb8?'
p207
tp208
Rp209
ssg18
(dp210
g23
g24
(g28
S'\x93\xc7P\xeb\xf8u\xdf?'
p211
tp212
Rp213
sg9
g24
(g28
S'\xed\xb2\xcb.\xbb\xec\xe2?'
p214
tp215
Rp216
sssS'DecisionTreeClassifier-binarize'
p217
(dp218
g3
(dp219
g5
F0.8055555555555556
sg6
F0.8
sg7
F0.7945205479452054
sg8
F0.7142857142857143
sg9
F0.6881720430107527
ssg10
(dp220
g5
F0.9770114942528736
sg6
F0.955056179775281
sg7
F0.9340659340659341
sg8
F1.0
sg9
F0.9139784946236559
ssg12
(dp221
g5
F0.9397590361445783
sg6
F0.9122807017543859
sg7
F0.8863636363636364
sg8
F1.0
sg9
F0.8387096774193549
ssg14
(dp222
g5
F0.7333333333333333
sg6
F0.7394957983193278
sg7
F0.7457627118644068
sg8
F0.45454545454545453
sg9
F0.6666666666666666
ssS'DCcEe'
p223
(dp224
g9
F0.21505376344086022
ssg18
(dp225
g5
F0.4375
sg6
F0.38888888888888895
sg7
F0.35
sg8
F0.4262295081967213
sg9
F0.5268817204301075
sssS'SVC-identity'
p226
(dp227
g14
(dp228
g23
g24
(g28
S'\xb4\x9b\x83\xc2\x86\xff\xdf?'
p229
tp230
Rp231
sg9
g24
(g28
S'\xa8\x9f~\xfa\xe9\xa7\xdf?'
p232
tp233
Rp234
ssg10
(dp235
g23
g24
(g28
S'\xf9\xe2\xd2q\xde\x9c\xdb?'
p236
tp237
Rp238
sg9
g24
(g28
S'\x16X`\x81\x05\x16\xe8?'
p239
tp240
Rp241
ssg12
(dp242
g23
g24
(g28
S'\xda\xa7\xdd\xf2\x85\x01\xdf?'
p243
tp244
Rp245
sg9
g24
(g28
S'\xf5\xd3O?\xfd\xf4\xe3?'
p246
tp247
Rp248
ssg3
(dp249
g23
g24
(g28
S'\x8c\x96v9)\x9f\xde?'
p250
tp251
Rp252
sg9
g24
(g28
S'\xa5\x94RJ)\xa5\xe4?'
p253
tp254
Rp255
ssS'DCcEe'
p256
(dp257
g23
g24
(g28
S'\xf7\xce\xe8\x98\x80\xe2\xd0?'
p258
tp259
Rp260
sg9
g24
(g28
S'E\x13M4\xd1D\xb3?'
p261
tp262
Rp263
ssg18
(dp264
g23
g24
(g28
S'#I\xff\x95\xbc\xfb\xdf?'
p265
tp266
Rp267
sg9
g24
(g28
S'\xf8\xde{\xef\xbd\xf7\xde?'
p268
tp269
Rp270
sssS'RandomForestClassifier-binarize'
p271
(dp272
g3
(dp273
g5
F0.8888888888888888
sg6
F0.8421052631578947
sg7
F0.8
sg8
F0.7619047619047619
sg9
F0.7419354838709677
ssg10
(dp274
g5
F0.9885057471264368
sg6
F0.9608938547486033
sg7
F0.9347826086956522
sg8
F1.0
sg9
F0.9247311827956989
ssg12
(dp275
g5
F1.0
sg6
F0.954022988505747
sg7
F0.9120879120879121
sg8
F0.8
sg9
F0.9139784946236559
ssg14
(dp276
g5
F0.75
sg6
F0.72
sg7
F0.6923076923076923
sg8
F0.6060606060606061
sg9
F0.6236559139784946
ssS'DCcEe'
p277
(dp278
g9
F0.25806451612903225
ssg18
(dp279
g5
F0.09375
sg6
F0.13043478260869565
sg7
F0.21428571428571427
sg8
F0.18032786885245902
sg9
F0.5698924731182796
sssS'LogisticRegression-binarize'
p280
(dp281
g3
(dp282
g5
F0.875
sg6
F0.8344370860927153
sg7
F0.7974683544303798
sg8
F0.7619047619047619
sg9
F0.7311827956989247
ssg10
(dp283
g5
F1.0
sg6
F0.9666666666666666
sg7
F0.9354838709677419
sg8
F1.0
sg9
F0.9354838709677419
ssg12
(dp284
g5
F0.9879518072289156
sg6
F0.937142857142857
sg7
F0.8913043478260869
sg8
F1.0
sg9
F0.8817204301075269
ssg14
(dp285
g5
F0.7833333333333333
sg6
F0.7833333333333333
sg7
F0.7833333333333333
sg8
F0.3939393939393939
sg9
F0.7204301075268817
ssS'DCcEe'
p286
(dp287
g9
F0.24731182795698925
ssg18
(dp288
g5
F0.28125
sg6
F0.3103448275862069
sg7
F0.34615384615384615
sg8
F0.2786885245901639
sg9
F0.5698924731182796
sss.