(dp0
S'SVC-binarize'
p1
(dp2
S'c'
p3
(dp4
S'recall'
p5
F0.9861111111111112
sS'F-measure'
p6
F0.9861111111111112
sS'precision'
p7
F0.9861111111111112
sS'FP-rate'
p8
F0.047619047619047616
sS'accuracy'
p9
F0.978494623655914
ssS'e'
p10
(dp11
g5
F0.9885057471264368
sg6
F0.9717514124293785
sg7
F0.9555555555555556
sg8
F0.6666666666666666
sg9
F0.946236559139785
ssS'D'
p12
(dp13
g5
F1.0
sg6
F1.0
sg7
F1.0
sg8
F0.0
sg9
F1.0
ssS'C'
p14
(dp15
g5
F1.0
sg6
F0.9836065573770493
sg7
F0.967741935483871
sg8
F0.06060606060606061
sg9
F0.978494623655914
ssS'DCcEe'
p16
(dp17
g9
F0.8602150537634409
ssS'E'
p18
(dp19
g5
F0.90625
sg6
F0.90625
sg7
F0.90625
sg8
F0.04918032786885246
sg9
F0.9354838709677419
sssS'DecisionTreeClassifier-identity'
p20
(dp21
g14
(dp22
S'std'
p23
cnumpy.core.multiarray
scalar
p24
(cnumpy
dtype
p25
(S'f8'
p26
I0
I1
tp27
Rp28
(I3
S'<'
p29
NNNI-1
I-1
I0
tp30
bS'\xf8\xe2\xd2q\xde\x9c\xdb?'
p31
tp32
Rp33
sg9
g24
(g28
S'\x16X`\x81\x05\x16\xe8?'
p34
tp35
Rp36
ssg10
(dp37
g23
g24
(g28
S'^\xe6\xdc\rf\xbc\xd8?'
p38
tp39
Rp40
sg9
g24
(g28
S"'\x9ah\xa2\x89&\xea?"
p41
tp42
Rp43
ssg12
(dp44
g23
g24
(g28
S'\xd0\x1a\x93\x92\xe1\x0c\xdd?'
p45
tp46
Rp47
sg9
g24
(g28
S'\xb6\xd6Zk\xad\xb5\xe6?'
p48
tp49
Rp50
ssg3
(dp51
g23
g24
(g28
S'\xedo\xf5*\x1er\xcf?'
p52
tp53
Rp54
sg9
g24
(g28
S'\xef\xbd\xf7\xde{\xef\xed?'
p55
tp56
Rp57
ssS'DCcEe'
p58
(dp59
g23
g24
(g28
S'"\xc6\x8f\xfe\xbd\x94\xdf?'
p60
tp61
Rp62
sg9
g24
(g28
S'\xd7Zk\xad\xb5\xd6\xda?'
p63
tp64
Rp65
ssg18
(dp66
g23
g24
(g28
S'\x914D\xd2\x02\x8a\xd7?'
p67
tp68
Rp69
sg9
g24
(g28
S'\xd7Zk\xad\xb5\xd6\xea?'
p70
tp71
Rp72
sssS'LogisticRegression-identity'
p73
(dp74
g14
(dp75
g23
g24
(g28
S'\x9f\xefc>$\x01\xdc?'
p76
tp77
Rp78
sg9
g24
(g28
S'\xbe\xf7\xde{\xef\xbd\xe7?'
p79
tp80
Rp81
ssg10
(dp82
g23
g24
(g28
S'[;\xc0/\x80t\xd5?'
p83
tp84
Rp85
sg9
g24
(g28
S'\xdf{\xef\xbd\xf7\xde\xeb?'
p86
tp87
Rp88
ssg12
(dp89
g23
g24
(g28
S'\xca\xc1\x8f\x1c\xe1\xe2\xd6?'
p90
tp91
Rp92
sg9
g24
(g28
S'/\xbb\xec\xb2\xcb.\xeb?'
p93
tp94
Rp95
ssg3
(dp96
g23
g24
(g28
S'\x9e\xa0l\xf7\xd4\xde\xcc?'
p97
tp98
Rp99
sg9
g24
(g28
S'H\x1ey\xe4\x91G\xee?'
p100
tp101
Rp102
ssS'DCcEe'
p103
(dp104
g23
g24
(g28
S'\xb4\x9b\x83\xc2\x86\xff\xdf?'
p105
tp106
Rp107
sg9
g24
(g28
S',\xb0\xc0\x02\x0b,\xe0?'
p108
tp109
Rp110
ssg18
(dp111
g23
g24
(g28
S'\x91ah*\xee\xeb\xd2?'
p112
tp113
Rp114
sg9
g24
(g28
S'\xe7\x9cs\xce9\xe7\xec?'
p115
tp116
Rp117
sssS'RandomForestClassifier-identity'
p118
(dp119
g14
(dp120
g23
g24
(g28
S'\xbb\xd1\x96\xd4\xf0\xb8\xdc?'
p121
tp122
Rp123
sg9
g24
(g28
S'\x0e7\xdcp\xc3\r\xe7?'
p124
tp125
Rp126
ssg10
(dp127
g23
g24
(g28
S'^\xe6\xdc\rf\xbc\xd8?'
p128
tp129
Rp130
sg9
g24
(g28
S"'\x9ah\xa2\x89&\xea?"
p131
tp132
Rp133
ssg12
(dp134
g23
g24
(g28
S'i\x94\xd2E\xdd\xcd\xd9?'
p135
tp136
Rp137
sg9
g24
(g28
S'v\xd9e\x97]v\xe9?'
p138
tp139
Rp140
ssg3
(dp141
g23
g24
(g28
S'\xf7\xce\xe8\x98\x80\xe2\xd0?'
p142
tp143
Rp144
sg9
g24
(g28
S'\x97]v\xd9e\x97\xed?'
p145
tp146
Rp147
ssS'DCcEe'
p148
(dp149
g23
g24
(g28
S't\xffi\xb1~\xc6\xdf?'
p150
tp151
Rp152
sg9
g24
(g28
S'7\xdcp\xc3\r7\xdc?'
p153
tp154
Rp155
ssg18
(dp156
g23
g24
(g28
S'\xf7\xce\xe8\x98\x80\xe2\xd0?'
p157
tp158
Rp159
sg9
g24
(g28
S'\x97]v\xd9e\x97\xed?'
p160
tp161
Rp162
sssS'DecisionTreeClassifier-binarize'
p163
(dp164
g3
(dp165
g5
F0.9861111111111112
sg6
F0.9861111111111112
sg7
F0.9861111111111112
sg8
F0.047619047619047616
sg9
F0.978494623655914
ssg10
(dp166
g5
F0.9885057471264368
sg6
F0.9717514124293785
sg7
F0.9555555555555556
sg8
F0.6666666666666666
sg9
F0.946236559139785
ssg12
(dp167
g5
F1.0
sg6
F1.0
sg7
F1.0
sg8
F0.0
sg9
F1.0
ssg14
(dp168
g5
F0.9666666666666667
sg6
F0.9586776859504132
sg7
F0.9508196721311475
sg8
F0.09090909090909091
sg9
F0.946236559139785
ssS'DCcEe'
p169
(dp170
g9
F0.7956989247311828
ssg18
(dp171
g5
F0.78125
sg6
F0.8333333333333334
sg7
F0.8928571428571429
sg8
F0.04918032786885246
sg9
F0.8924731182795699
sssS'SVC-identity'
p172
(dp173
g14
(dp174
g23
g24
(g28
S'\xbc\xd1\x96\xd4\xf0\xb8\xdc?'
p175
tp176
Rp177
sg9
g24
(g28
S'\x0e7\xdcp\xc3\r\xe7?'
p178
tp179
Rp180
ssg10
(dp181
g23
g24
(g28
S"\x8e\xd6\xcc\x15\x9d'\xd8?"
p182
tp183
Rp184
sg9
g24
(g28
S'\x7f\xfa\xe9\xa7\x9f~\xea?'
p185
tp186
Rp187
ssg12
(dp188
g23
g24
(g28
S'\xd0\x1a\x93\x92\xe1\x0c\xdd?'
p189
tp190
Rp191
sg9
g24
(g28
S'\xb6\xd6Zk\xad\xb5\xe6?'
p192
tp193
Rp194
ssg3
(dp195
g23
g24
(g28
S'\x9e\xa0l\xf7\xd4\xde\xcc?'
p196
tp197
Rp198
sg9
g24
(g28
S'H\x1ey\xe4\x91G\xee?'
p199
tp200
Rp201
ssS'DCcEe'
p202
(dp203
g23
g24
(g28
S'@\xdb\xc5\xe3&\xf4\xdf?'
p204
tp205
Rp206
sg9
g24
(g28
S'H\x1ey\xe4\x91G\xde?'
p207
tp208
Rp209
ssg18
(dp210
g23
g24
(g28
S'\xf7\xce\xe8\x98\x80\xe2\xd0?'
p211
tp212
Rp213
sg9
g24
(g28
S'\x97]v\xd9e\x97\xed?'
p214
tp215
Rp216
sssS'RandomForestClassifier-binarize'
p217
(dp218
g3
(dp219
g5
F0.9305555555555556
sg6
F0.9503546099290779
sg7
F0.9710144927536232
sg8
F0.09523809523809523
sg9
F0.9247311827956989
ssg10
(dp220
g5
F0.9770114942528736
sg6
F0.9714285714285715
sg7
F0.9659090909090909
sg8
F0.5
sg9
F0.946236559139785
ssg12
(dp221
g5
F1.0
sg6
F1.0
sg7
F1.0
sg8
F0.0
sg9
F1.0
ssg14
(dp222
g5
F0.9833333333333333
sg6
F0.9672131147540984
sg7
F0.9516129032258065
sg8
F0.09090909090909091
sg9
F0.956989247311828
ssS'DCcEe'
p223
(dp224
g9
F0.7634408602150538
ssg18
(dp225
g5
F0.875
sg6
F0.8888888888888888
sg7
F0.9032258064516129
sg8
F0.04918032786885246
sg9
F0.9247311827956989
sssS'LogisticRegression-binarize'
p226
(dp227
g3
(dp228
g5
F0.9861111111111112
sg6
F0.9793103448275863
sg7
F0.9726027397260274
sg8
F0.09523809523809523
sg9
F0.967741935483871
ssg10
(dp229
g5
F0.9655172413793104
sg6
F0.9710982658959538
sg7
F0.9767441860465116
sg8
F0.3333333333333333
sg9
F0.946236559139785
ssg12
(dp230
g5
F1.0
sg6
F1.0
sg7
F1.0
sg8
F0.0
sg9
F1.0
ssg14
(dp231
g5
F0.9833333333333333
sg6
F0.975206611570248
sg7
F0.9672131147540983
sg8
F0.06060606060606061
sg9
F0.967741935483871
ssS'DCcEe'
p232
(dp233
g9
F0.8494623655913979
ssg18
(dp234
g5
F0.90625
sg6
F0.9206349206349206
sg7
F0.9354838709677419
sg8
F0.03278688524590164
sg9
F0.946236559139785
sss.