(dp0
S'SVC-binarize'
p1
(dp2
S'c'
p3
(dp4
S'recall'
p5
F0.9722222222222222
sS'F-measure'
p6
F0.8588957055214725
sS'precision'
p7
F0.7692307692307693
sS'FP-rate'
p8
F1.0
sS'accuracy'
p9
F0.7526881720430108
ssS'e'
p10
(dp11
g5
F1.0
sg6
F0.9666666666666666
sg7
F0.9354838709677419
sg8
F1.0
sg9
F0.9354838709677419
ssS'D'
p12
(dp13
g5
F1.0
sg6
F1.0
sg7
F1.0
sg8
F0.0
sg9
F1.0
ssS'C'
p14
(dp15
g5
F0.9166666666666666
sg6
F0.802919708029197
sg7
F0.7142857142857143
sg8
F0.6666666666666666
sg9
F0.7096774193548387
ssS'DCcEe'
p16
(dp17
g9
F0.3548387096774194
ssS'E'
p18
(dp19
g5
F0.0
sg6
F0.0
sg7
Finf
sg8
F0.0
sg9
F0.6559139784946236
sssS'DecisionTreeClassifier-identity'
p20
(dp21
g14
(dp22
S'std'
p23
cnumpy.core.multiarray
scalar
p24
(cnumpy
dtype
p25
(S'f8'
p26
I0
I1
tp27
Rp28
(I3
S'<'
p29
NNNI-1
I-1
I0
tp30
bS'@\xdb\xc5\xe3&\xf4\xdf?'
p31
tp32
Rp33
sg9
g24
(g28
S'H\x1ey\xe4\x91G\xde?'
p34
tp35
Rp36
ssg10
(dp37
g23
g24
(g28
S'w\x02\xfe\x1aZ\xc2\xda?'
p38
tp39
Rp40
sg9
g24
(g28
S'\xc6\x18c\x8c1\xc6\xe8?'
p41
tp42
Rp43
ssg12
(dp44
g23
g24
(g28
S'\x8d\xa5\x18i\xc2_\xdc?'
p45
tp46
Rp47
sg9
g24
(g28
S'f\x97]v\xd9e\xe7?'
p48
tp49
Rp50
ssg3
(dp51
g23
g24
(g28
S'v\x02\xfe\x1aZ\xc2\xda?'
p52
tp53
Rp54
sg9
g24
(g28
S'\xc6\x18c\x8c1\xc6\xe8?'
p55
tp56
Rp57
ssS'DCcEe'
p58
(dp59
g23
g24
(g28
S'\xbb\xd1\x96\xd4\xf0\xb8\xdc?'
p60
tp61
Rp62
sg9
g24
(g28
S'\xe4\x91G\x1ey\xe4\xd1?'
p63
tp64
Rp65
ssg18
(dp66
g23
g24
(g28
S'\x90\xe6\x82%k,\xdf?'
p67
tp68
Rp69
sg9
g24
(g28
S'\x9ds\xce9\xe7\x9c\xe3?'
p70
tp71
Rp72
sssS'GradientBoostingClassifier-binarize'
p73
(dp74
g3
(dp75
g5
F0.875
sg6
F0.8630136986301371
sg7
F0.8513513513513513
sg8
F0.5238095238095238
sg9
F0.7849462365591398
ssg10
(dp76
g5
F0.9425287356321839
sg6
F0.937142857142857
sg7
F0.9318181818181818
sg8
F1.0
sg9
F0.8817204301075269
ssg12
(dp77
g5
F1.0
sg6
F1.0
sg7
F1.0
sg8
F0.0
sg9
F1.0
ssg14
(dp78
g5
F0.8
sg6
F0.7619047619047619
sg7
F0.7272727272727273
sg8
F0.5454545454545454
sg9
F0.6774193548387096
ssS'DCcEe'
p79
(dp80
g9
F0.5053763440860215
ssg18
(dp81
g5
F0.40625
sg6
F0.41935483870967744
sg7
F0.43333333333333335
sg8
F0.2786885245901639
sg9
F0.6129032258064516
sssS'LogisticRegression-identity'
p82
(dp83
g14
(dp84
g23
g24
(g28
S'@\xdb\xc5\xe3&\xf4\xdf?'
p85
tp86
Rp87
sg9
g24
(g28
S'\xdcp\xc3\r7\xdc\xe0?'
p88
tp89
Rp90
ssg10
(dp91
g23
g24
(g28
S'!\xdbs\xca\x07\xab\xd4?'
p92
tp93
Rp94
sg9
g24
(g28
S'7\xdcp\xc3\r7\xec?'
p95
tp96
Rp97
ssg12
(dp98
g23
g24
(g28
S'\xca\xc1\x8f\x1c\xe1\xe2\xd6?'
p99
tp100
Rp101
sg9
g24
(g28
S'/\xbb\xec\xb2\xcb.\xeb?'
p102
tp103
Rp104
ssg3
(dp105
g23
g24
(g28
S'4\xccI9\x86K\xda?'
p106
tp107
Rp108
sg9
g24
(g28
S'\x1ey\xe4\x91G\x1e\xe9?'
p109
tp110
Rp111
ssS'DCcEe'
p112
(dp113
g23
g24
(g28
S'\xfa\xcf,d\xf9H\xd9?'
p114
tp115
Rp116
sg9
g24
(g28
S'\xc6\x18c\x8c1\xc6\xc8?'
p117
tp118
Rp119
ssg18
(dp120
g23
g24
(g28
S'\xda\xa7\xdd\xf2\x85\x01\xdf?'
p121
tp122
Rp123
sg9
g24
(g28
S'\xf5\xd3O?\xfd\xf4\xe3?'
p124
tp125
Rp126
sssS'GradientBoostingClassifier-identity'
p127
(dp128
g14
(dp129
g23
g24
(g28
S'@\xdb\xc5\xe3&\xf4\xdf?'
p130
tp131
Rp132
sg9
g24
(g28
S'H\x1ey\xe4\x91G\xde?'
p133
tp134
Rp135
ssg10
(dp136
g23
g24
(g28
S'w\x02\xfe\x1aZ\xc2\xda?'
p137
tp138
Rp139
sg9
g24
(g28
S'\xc6\x18c\x8c1\xc6\xe8?'
p140
tp141
Rp142
ssg12
(dp143
g23
g24
(g28
S'\x8d\xa5\x18i\xc2_\xdc?'
p144
tp145
Rp146
sg9
g24
(g28
S'f\x97]v\xd9e\xe7?'
p147
tp148
Rp149
ssg3
(dp150
g23
g24
(g28
S'v\x02\xfe\x1aZ\xc2\xda?'
p151
tp152
Rp153
sg9
g24
(g28
S'\xc6\x18c\x8c1\xc6\xe8?'
p154
tp155
Rp156
ssS'DCcEe'
p157
(dp158
g23
g24
(g28
S'\xbb\xd1\x96\xd4\xf0\xb8\xdc?'
p159
tp160
Rp161
sg9
g24
(g28
S'\xe4\x91G\x1ey\xe4\xd1?'
p162
tp163
Rp164
ssg18
(dp165
g23
g24
(g28
S'\x90\xe6\x82%k,\xdf?'
p166
tp167
Rp168
sg9
g24
(g28
S'\x9ds\xce9\xe7\x9c\xe3?'
p169
tp170
Rp171
sssS'RandomForestClassifier-identity'
p172
(dp173
g14
(dp174
g23
g24
(g28
S'@\xdb\xc5\xe3&\xf4\xdf?'
p175
tp176
Rp177
sg9
g24
(g28
S'H\x1ey\xe4\x91G\xde?'
p178
tp179
Rp180
ssg10
(dp181
g23
g24
(g28
S'\x1f\xa0tx\xb22\xdb?'
p182
tp183
Rp184
sg9
g24
(g28
S'n\xb8\xe1\x86\x1bn\xe8?'
p185
tp186
Rp187
ssg12
(dp188
g23
g24
(g28
S'\x9f\xefc>$\x01\xdc?'
p189
tp190
Rp191
sg9
g24
(g28
S'\xbe\xf7\xde{\xef\xbd\xe7?'
p192
tp193
Rp194
ssg3
(dp195
g23
g24
(g28
S' \xa0tx\xb22\xdb?'
p196
tp197
Rp198
sg9
g24
(g28
S'n\xb8\xe1\x86\x1bn\xe8?'
p199
tp200
Rp201
ssS'DCcEe'
p202
(dp203
g23
g24
(g28
S'\xf8\xe2\xd2q\xde\x9c\xdb?'
p204
tp205
Rp206
sg9
g24
(g28
S'\xa8\x9f~\xfa\xe9\xa7\xcf?'
p207
tp208
Rp209
ssg18
(dp210
g23
g24
(g28
S'\x90\xe6\x82%k,\xdf?'
p211
tp212
Rp213
sg9
g24
(g28
S'\x9ds\xce9\xe7\x9c\xe3?'
p214
tp215
Rp216
sssS'DecisionTreeClassifier-binarize'
p217
(dp218
g3
(dp219
g5
F0.875
sg6
F0.8630136986301371
sg7
F0.8513513513513513
sg8
F0.5238095238095238
sg9
F0.7849462365591398
ssg10
(dp220
g5
F0.9425287356321839
sg6
F0.937142857142857
sg7
F0.9318181818181818
sg8
F1.0
sg9
F0.8817204301075269
ssg12
(dp221
g5
F1.0
sg6
F1.0
sg7
F1.0
sg8
F0.0
sg9
F1.0
ssg14
(dp222
g5
F0.8
sg6
F0.7619047619047619
sg7
F0.7272727272727273
sg8
F0.5454545454545454
sg9
F0.6774193548387096
ssS'DCcEe'
p223
(dp224
g9
F0.5053763440860215
ssg18
(dp225
g5
F0.40625
sg6
F0.41935483870967744
sg7
F0.43333333333333335
sg8
F0.2786885245901639
sg9
F0.6129032258064516
sssS'SVC-identity'
p226
(dp227
g14
(dp228
g23
g24
(g28
S'$I\xff\x95\xbc\xfb\xdf?'
p229
tp230
Rp231
sg9
g24
(g28
S'\x84\x10B\x08!\x84\xe0?'
p232
tp233
Rp234
ssg10
(dp235
g23
g24
(g28
S'!\xdbs\xca\x07\xab\xd4?'
p236
tp237
Rp238
sg9
g24
(g28
S'7\xdcp\xc3\r7\xec?'
p239
tp240
Rp241
ssg12
(dp242
g23
g24
(g28
S'\xca\xc1\x8f\x1c\xe1\xe2\xd6?'
p243
tp244
Rp245
sg9
g24
(g28
S'/\xbb\xec\xb2\xcb.\xeb?'
p246
tp247
Rp248
ssg3
(dp249
g23
g24
(g28
S'\xc5Z\xbcP\xb9\xa5\xdd?'
p250
tp251
Rp252
sg9
g24
(g28
S'\x06\x16X`\x81\x05\xe6?'
p253
tp254
Rp255
ssS'DCcEe'
p256
(dp257
g23
g24
(g28
S'^\xe6\xdc\rf\xbc\xd8?'
p258
tp259
Rp260
sg9
g24
(g28
S'f\x97]v\xd9e\xc7?'
p261
tp262
Rp263
ssg18
(dp264
g23
g24
(g28
S'=q\x1c\x07\x89g\xde?'
p265
tp266
Rp267
sg9
g24
(g28
S'\xfd\xf4\xd3O?\xfd\xe4?'
p268
tp269
Rp270
sssS'RandomForestClassifier-binarize'
p271
(dp272
g3
(dp273
g5
F0.875
sg6
F0.8689655172413794
sg7
F0.863013698630137
sg8
F0.47619047619047616
sg9
F0.7956989247311828
ssg10
(dp274
g5
F0.9540229885057471
sg6
F0.9431818181818181
sg7
F0.9325842696629213
sg8
F1.0
sg9
F0.8924731182795699
ssg12
(dp275
g5
F1.0
sg6
F1.0
sg7
F1.0
sg8
F0.0
sg9
F1.0
ssg14
(dp276
g5
F0.7833333333333333
sg6
F0.7519999999999999
sg7
F0.7230769230769231
sg8
F0.5454545454545454
sg9
F0.6666666666666666
ssS'DCcEe'
p277
(dp278
g9
F0.5161290322580645
ssg18
(dp279
g5
F0.40625
sg6
F0.41935483870967744
sg7
F0.43333333333333335
sg8
F0.2786885245901639
sg9
F0.6129032258064516
sssS'LogisticRegression-binarize'
p280
(dp281
g3
(dp282
g5
F0.9027777777777778
sg6
F0.8666666666666667
sg7
F0.8333333333333334
sg8
F0.6190476190476191
sg9
F0.7849462365591398
ssg10
(dp283
g5
F1.0
sg6
F0.9666666666666666
sg7
F0.9354838709677419
sg8
F1.0
sg9
F0.9354838709677419
ssg12
(dp284
g5
F1.0
sg6
F1.0
sg7
F1.0
sg8
F0.0
sg9
F1.0
ssg14
(dp285
g5
F0.8833333333333333
sg6
F0.7851851851851852
sg7
F0.7066666666666667
sg8
F0.6666666666666666
sg9
F0.6881720430107527
ssS'DCcEe'
p286
(dp287
g9
F0.3763440860215054
ssg18
(dp288
g5
F0.03125
sg6
F0.05405405405405406
sg7
F0.2
sg8
F0.06557377049180328
sg9
F0.6236559139784946
sss.