(dp0
S'SVC-binarize'
p1
(dp2
S'c'
p3
(dp4
S'recall'
p5
F0.8472222222222222
sS'F-measure'
p6
F0.8840579710144927
sS'precision'
p7
F0.9242424242424242
sS'FP-rate'
p8
F0.23809523809523808
sS'accuracy'
p9
F0.8279569892473119
ssS'e'
p10
(dp11
g5
F0.9655172413793104
sg6
F0.9600000000000002
sg7
F0.9545454545454546
sg8
F0.6666666666666666
sg9
F0.9247311827956989
ssS'D'
p12
(dp13
g5
F1.0
sg6
F1.0
sg7
F1.0
sg8
F0.0
sg9
F1.0
ssS'C'
p14
(dp15
g5
F0.8666666666666667
sg6
F0.9043478260869565
sg7
F0.9454545454545454
sg8
F0.09090909090909091
sg9
F0.8817204301075269
ssS'DCcEe'
p16
(dp17
g9
F0.5806451612903226
ssS'E'
p18
(dp19
g5
F0.78125
sg6
F0.8333333333333334
sg7
F0.8928571428571429
sg8
F0.04918032786885246
sg9
F0.8924731182795699
sssS'DecisionTreeClassifier-identity'
p20
(dp21
g14
(dp22
S'std'
p23
cnumpy.core.multiarray
scalar
p24
(cnumpy
dtype
p25
(S'f8'
p26
I0
I1
tp27
Rp28
(I3
S'<'
p29
NNNI-1
I-1
I0
tp30
bS'f\xfa\xfe\xdd}+\xde?'
p31
tp32
Rp33
sg9
g24
(g28
S'UUUUUU\xe5?'
p34
tp35
Rp36
ssg10
(dp37
g23
g24
(g28
S"\x8e\xd6\xcc\x15\x9d'\xd8?"
p38
tp39
Rp40
sg9
g24
(g28
S'\x7f\xfa\xe9\xa7\x9f~\xea?'
p41
tp42
Rp43
ssg12
(dp44
g23
g24
(g28
S'\x1d\xa0tx\xb22\xdb?'
p45
tp46
Rp47
sg9
g24
(g28
S'n\xb8\xe1\x86\x1bn\xe8?'
p48
tp49
Rp50
ssg3
(dp51
g23
g24
(g28
S'w\x02\xfe\x1aZ\xc2\xda?'
p52
tp53
Rp54
sg9
g24
(g28
S'\xc6\x18c\x8c1\xc6\xe8?'
p55
tp56
Rp57
ssS'DCcEe'
p58
(dp59
g23
g24
(g28
S'\xd2\x1a\x93\x92\xe1\x0c\xdd?'
p60
tp61
Rp62
sg9
g24
(g28
S'\x95RJ)\xa5\x94\xd2?'
p63
tp64
Rp65
ssg18
(dp66
g23
g24
(g28
S'\xb0h*\xa3w\xd3\xd3?'
p67
tp68
Rp69
sg9
g24
(g28
S'\x8f<\xf2\xc8#\x8f\xec?'
p70
tp71
Rp72
sssS'GradientBoostingClassifier-binarize'
p73
(dp74
g3
(dp75
g5
F0.8333333333333334
sg6
F0.8695652173913044
sg7
F0.9090909090909091
sg8
F0.2857142857142857
sg9
F0.8064516129032258
ssg10
(dp76
g5
F0.9770114942528736
sg6
F0.9604519774011301
sg7
F0.9444444444444444
sg8
F0.8333333333333334
sg9
F0.9247311827956989
ssg12
(dp77
g5
F1.0
sg6
F1.0
sg7
F1.0
sg8
F0.0
sg9
F1.0
ssg14
(dp78
g5
F0.8833333333333333
sg6
F0.9217391304347825
sg7
F0.9636363636363636
sg8
F0.06060606060606061
sg9
F0.9032258064516129
ssS'DCcEe'
p79
(dp80
g9
F0.5913978494623656
ssg18
(dp81
g5
F0.78125
sg6
F0.8474576271186439
sg7
F0.9259259259259259
sg8
F0.03278688524590164
sg9
F0.9032258064516129
sssS'LogisticRegression-identity'
p82
(dp83
g14
(dp84
g23
g24
(g28
S'\x1f\xa0tx\xb22\xdb?'
p85
tp86
Rp87
sg9
g24
(g28
S'n\xb8\xe1\x86\x1bn\xe8?'
p88
tp89
Rp90
ssg10
(dp91
g23
g24
(g28
S'[;\xc0/\x80t\xd5?'
p92
tp93
Rp94
sg9
g24
(g28
S'\xdf{\xef\xbd\xf7\xde\xeb?'
p95
tp96
Rp97
ssg12
(dp98
g23
g24
(g28
S'\xca\xc1\x8f\x1c\xe1\xe2\xd6?'
p99
tp100
Rp101
sg9
g24
(g28
S'/\xbb\xec\xb2\xcb.\xeb?'
p102
tp103
Rp104
ssg3
(dp105
g23
g24
(g28
S"\x8e\xd6\xcc\x15\x9d'\xd8?"
p106
tp107
Rp108
sg9
g24
(g28
S'\x7f\xfa\xe9\xa7\x9f~\xea?'
p109
tp110
Rp111
ssS'DCcEe'
p112
(dp113
g23
g24
(g28
S'\x95\xc7P\xeb\xf8u\xdf?'
p114
tp115
Rp116
sg9
g24
(g28
S"'\x9ah\xa2\x89&\xda?"
p117
tp118
Rp119
ssg18
(dp120
g23
g24
(g28
S'\xaeh*\xa3w\xd3\xd3?'
p121
tp122
Rp123
sg9
g24
(g28
S'\x8f<\xf2\xc8#\x8f\xec?'
p124
tp125
Rp126
sssS'GradientBoostingClassifier-identity'
p127
(dp128
g14
(dp129
g23
g24
(g28
S'\x19\xbce\x97\xc1[\xdd?'
p130
tp131
Rp132
sg9
g24
(g28
S'^v\xd9e\x97]\xe6?'
p133
tp134
Rp135
ssg10
(dp136
g23
g24
(g28
S'\xca\xc1\x8f\x1c\xe1\xe2\xd6?'
p137
tp138
Rp139
sg9
g24
(g28
S'/\xbb\xec\xb2\xcb.\xeb?'
p140
tp141
Rp142
ssg12
(dp143
g23
g24
(g28
S'w\x02\xfe\x1aZ\xc2\xda?'
p144
tp145
Rp146
sg9
g24
(g28
S'\xc6\x18c\x8c1\xc6\xe8?'
p147
tp148
Rp149
ssg3
(dp150
g23
g24
(g28
S'4\xccI9\x86K\xda?'
p151
tp152
Rp153
sg9
g24
(g28
S'\x1ey\xe4\x91G\x1e\xe9?'
p154
tp155
Rp156
ssS'DCcEe'
p157
(dp158
g23
g24
(g28
S'\x8c\x96v9)\x9f\xde?'
p159
tp160
Rp161
sg9
g24
(g28
S'\xb6\xd6Zk\xad\xb5\xd6?'
p162
tp163
Rp164
ssg18
(dp165
g23
g24
(g28
S'\x92ah*\xee\xeb\xd2?'
p166
tp167
Rp168
sg9
g24
(g28
S'\xe7\x9cs\xce9\xe7\xec?'
p169
tp170
Rp171
sssS'RandomForestClassifier-identity'
p172
(dp173
g14
(dp174
g23
g24
(g28
S'\x8c\x96v9)\x9f\xde?'
p175
tp176
Rp177
sg9
g24
(g28
S'\xa5\x94RJ)\xa5\xe4?'
p178
tp179
Rp180
ssg10
(dp181
g23
g24
(g28
S'l5R\xaf`1\xd6?'
p182
tp183
Rp184
sg9
g24
(g28
S'\x87\x1bn\xb8\xe1\x86\xeb?'
p185
tp186
Rp187
ssg12
(dp188
g23
g24
(g28
S'4\xccI9\x86K\xda?'
p189
tp190
Rp191
sg9
g24
(g28
S'\x1ey\xe4\x91G\x1e\xe9?'
p192
tp193
Rp194
ssg3
(dp195
g23
g24
(g28
S'w\x02\xfe\x1aZ\xc2\xda?'
p196
tp197
Rp198
sg9
g24
(g28
S'\xc6\x18c\x8c1\xc6\xe8?'
p199
tp200
Rp201
ssS'DCcEe'
p202
(dp203
g23
g24
(g28
S'\xd2\x1a\x93\x92\xe1\x0c\xdd?'
p204
tp205
Rp206
sg9
g24
(g28
S'\x95RJ)\xa5\x94\xd2?'
p207
tp208
Rp209
ssg18
(dp210
g23
g24
(g28
S'[;\xc0/\x80t\xd5?'
p211
tp212
Rp213
sg9
g24
(g28
S'\xdf{\xef\xbd\xf7\xde\xeb?'
p214
tp215
Rp216
sssS'DecisionTreeClassifier-binarize'
p217
(dp218
g3
(dp219
g5
F0.7916666666666666
sg6
F0.8507462686567163
sg7
F0.9193548387096774
sg8
F0.23809523809523808
sg9
F0.7849462365591398
ssg10
(dp220
g5
F0.9540229885057471
sg6
F0.9485714285714285
sg7
F0.9431818181818182
sg8
F0.8333333333333334
sg9
F0.9032258064516129
ssg12
(dp221
g5
F1.0
sg6
F1.0
sg7
F1.0
sg8
F0.0
sg9
F1.0
ssg14
(dp222
g5
F0.85
sg6
F0.9107142857142856
sg7
F0.9807692307692307
sg8
F0.030303030303030304
sg9
F0.8924731182795699
ssS'DCcEe'
p223
(dp224
g9
F0.5698924731182796
ssg18
(dp225
g5
F0.78125
sg6
F0.8474576271186439
sg7
F0.9259259259259259
sg8
F0.03278688524590164
sg9
F0.9032258064516129
sssS'SVC-identity'
p226
(dp227
g14
(dp228
g23
g24
(g28
S'\xf8\xe2\xd2q\xde\x9c\xdb?'
p229
tp230
Rp231
sg9
g24
(g28
S'\x16X`\x81\x05\x16\xe8?'
p232
tp233
Rp234
ssg10
(dp235
g23
g24
(g28
S'[;\xc0/\x80t\xd5?'
p236
tp237
Rp238
sg9
g24
(g28
S'\xdf{\xef\xbd\xf7\xde\xeb?'
p239
tp240
Rp241
ssg12
(dp242
g23
g24
(g28
S'\xfa\xcf,d\xf9H\xd9?'
p243
tp244
Rp245
sg9
g24
(g28
S'\xce9\xe7\x9cs\xce\xe9?'
p246
tp247
Rp248
ssg3
(dp249
g23
g24
(g28
S']\xe6\xdc\rf\xbc\xd8?'
p250
tp251
Rp252
sg9
g24
(g28
S"'\x9ah\xa2\x89&\xea?"
p253
tp254
Rp255
ssS'DCcEe'
p256
(dp257
g23
g24
(g28
S'\xaf\xa1\x11\x157S\xdf?'
p258
tp259
Rp260
sg9
g24
(g28
S'v\xd9e\x97]v\xd9?'
p261
tp262
Rp263
ssg18
(dp264
g23
g24
(g28
S'\xaeh*\xa3w\xd3\xd3?'
p265
tp266
Rp267
sg9
g24
(g28
S'\x8f<\xf2\xc8#\x8f\xec?'
p268
tp269
Rp270
sssS'RandomForestClassifier-binarize'
p271
(dp272
g3
(dp273
g5
F0.8055555555555556
sg6
F0.8467153284671534
sg7
F0.8923076923076924
sg8
F0.3333333333333333
sg9
F0.7741935483870968
ssg10
(dp274
g5
F0.9770114942528736
sg6
F0.955056179775281
sg7
F0.9340659340659341
sg8
F1.0
sg9
F0.9139784946236559
ssg12
(dp275
g5
F1.0
sg6
F1.0
sg7
F1.0
sg8
F0.0
sg9
F1.0
ssg14
(dp276
g5
F0.8833333333333333
sg6
F0.8760330578512397
sg7
F0.8688524590163934
sg8
F0.24242424242424243
sg9
F0.8387096774193549
ssS'DCcEe'
p277
(dp278
g9
F0.4838709677419355
ssg18
(dp279
g5
F0.6875
sg6
F0.7719298245614036
sg7
F0.88
sg8
F0.04918032786885246
sg9
F0.8602150537634409
sssS'LogisticRegression-binarize'
p280
(dp281
g3
(dp282
g5
F0.8472222222222222
sg6
F0.8840579710144927
sg7
F0.9242424242424242
sg8
F0.23809523809523808
sg9
F0.8279569892473119
ssg10
(dp283
g5
F0.9885057471264368
sg6
F0.9608938547486033
sg7
F0.9347826086956522
sg8
F1.0
sg9
F0.9247311827956989
ssg12
(dp284
g5
F1.0
sg6
F1.0
sg7
F1.0
sg8
F0.0
sg9
F1.0
ssg14
(dp285
g5
F0.8833333333333333
sg6
F0.9298245614035088
sg7
F0.9814814814814815
sg8
F0.030303030303030304
sg9
F0.9139784946236559
ssS'DCcEe'
p286
(dp287
g9
F0.6021505376344086
ssg18
(dp288
g5
F0.78125
sg6
F0.8333333333333334
sg7
F0.8928571428571429
sg8
F0.04918032786885246
sg9
F0.8924731182795699
sss.