(dp0
S'SVC-binarize'
p1
(dp2
S'c'
p3
(dp4
S'recall'
p5
F1.0
sS'F-measure'
p6
F0.8727272727272726
sS'precision'
p7
F0.7741935483870968
sS'FP-rate'
p8
F1.0
sS'accuracy'
p9
F0.7741935483870968
ssS'e'
p10
(dp11
g5
F1.0
sg6
F0.9666666666666666
sg7
F0.9354838709677419
sg8
F1.0
sg9
F0.9354838709677419
ssS'D'
p12
(dp13
g5
F1.0
sg6
F0.9431818181818183
sg7
F0.8924731182795699
sg8
F1.0
sg9
F0.8924731182795699
ssS'C'
p14
(dp15
g5
F1.0
sg6
F0.7843137254901962
sg7
F0.6451612903225806
sg8
F1.0
sg9
F0.6451612903225806
ssS'DCcEe'
p16
(dp17
g9
F0.3010752688172043
ssS'E'
p18
(dp19
g5
F0.0
sg6
F0.0
sg7
Finf
sg8
F0.0
sg9
F0.6559139784946236
sssS'DecisionTreeClassifier-identity'
p20
(dp21
g14
(dp22
S'std'
p23
cnumpy.core.multiarray
scalar
p24
(cnumpy
dtype
p25
(S'f8'
p26
I0
I1
tp27
Rp28
(I3
S'<'
p29
NNNI-1
I-1
I0
tp30
bS'&:\x0e\xf7\xc2\xe8\xdf?'
p31
tp32
Rp33
sg9
g24
(g28
S'\x97]v\xd9e\x97\xdd?'
p34
tp35
Rp36
ssg10
(dp37
g23
g24
(g28
S'!\xdbs\xca\x07\xab\xd4?'
p38
tp39
Rp40
sg9
g24
(g28
S'7\xdcp\xc3\r7\xec?'
p41
tp42
Rp43
ssg12
(dp44
g23
g24
(g28
S'\x9f\xefc>$\x01\xdc?'
p45
tp46
Rp47
sg9
g24
(g28
S'\xbe\xf7\xde{\xef\xbd\xe7?'
p48
tp49
Rp50
ssg3
(dp51
g23
g24
(g28
S'\xf8\xe2\xd2q\xde\x9c\xdb?'
p52
tp53
Rp54
sg9
g24
(g28
S'\x16X`\x81\x05\x16\xe8?'
p55
tp56
Rp57
ssS'DCcEe'
p58
(dp59
g23
g24
(g28
S'\x914D\xd2\x02\x8a\xd7?'
p60
tp61
Rp62
sg9
g24
(g28
S'\xa5\x94RJ)\xa5\xc4?'
p63
tp64
Rp65
ssg18
(dp66
g23
g24
(g28
S'=q\x1c\x07\x89g\xde?'
p67
tp68
Rp69
sg9
g24
(g28
S'\xfd\xf4\xd3O?\xfd\xe4?'
p70
tp71
Rp72
sssS'GradientBoostingClassifier-binarize'
p73
(dp74
g3
(dp75
g5
F1.0
sg6
F0.8727272727272726
sg7
F0.7741935483870968
sg8
F1.0
sg9
F0.7741935483870968
ssg10
(dp76
g5
F1.0
sg6
F0.9666666666666666
sg7
F0.9354838709677419
sg8
F1.0
sg9
F0.9354838709677419
ssg12
(dp77
g5
F1.0
sg6
F0.9431818181818183
sg7
F0.8924731182795699
sg8
F1.0
sg9
F0.8924731182795699
ssg14
(dp78
g5
F1.0
sg6
F0.7843137254901962
sg7
F0.6451612903225806
sg8
F1.0
sg9
F0.6451612903225806
ssS'DCcEe'
p79
(dp80
g9
F0.3010752688172043
ssg18
(dp81
g5
F0.0
sg6
F0.0
sg7
Finf
sg8
F0.0
sg9
F0.6559139784946236
sssS'LogisticRegression-identity'
p82
(dp83
g14
(dp84
g23
g24
(g28
S'&:\x0e\xf7\xc2\xe8\xdf?'
p85
tp86
Rp87
sg9
g24
(g28
S'\x97]v\xd9e\x97\xdd?'
p88
tp89
Rp90
ssg10
(dp91
g23
g24
(g28
S'!\xdbs\xca\x07\xab\xd4?'
p92
tp93
Rp94
sg9
g24
(g28
S'7\xdcp\xc3\r7\xec?'
p95
tp96
Rp97
ssg12
(dp98
g23
g24
(g28
S'\x9f\xefc>$\x01\xdc?'
p99
tp100
Rp101
sg9
g24
(g28
S'\xbe\xf7\xde{\xef\xbd\xe7?'
p102
tp103
Rp104
ssg3
(dp105
g23
g24
(g28
S'\xf8\xe2\xd2q\xde\x9c\xdb?'
p106
tp107
Rp108
sg9
g24
(g28
S'\x16X`\x81\x05\x16\xe8?'
p109
tp110
Rp111
ssS'DCcEe'
p112
(dp113
g23
g24
(g28
S'\x914D\xd2\x02\x8a\xd7?'
p114
tp115
Rp116
sg9
g24
(g28
S'\xa5\x94RJ)\xa5\xc4?'
p117
tp118
Rp119
ssg18
(dp120
g23
g24
(g28
S'=q\x1c\x07\x89g\xde?'
p121
tp122
Rp123
sg9
g24
(g28
S'\xfd\xf4\xd3O?\xfd\xe4?'
p124
tp125
Rp126
sssS'GradientBoostingClassifier-identity'
p127
(dp128
g14
(dp129
g23
g24
(g28
S'&:\x0e\xf7\xc2\xe8\xdf?'
p130
tp131
Rp132
sg9
g24
(g28
S'\x97]v\xd9e\x97\xdd?'
p133
tp134
Rp135
ssg10
(dp136
g23
g24
(g28
S'!\xdbs\xca\x07\xab\xd4?'
p137
tp138
Rp139
sg9
g24
(g28
S'7\xdcp\xc3\r7\xec?'
p140
tp141
Rp142
ssg12
(dp143
g23
g24
(g28
S'\x9f\xefc>$\x01\xdc?'
p144
tp145
Rp146
sg9
g24
(g28
S'\xbe\xf7\xde{\xef\xbd\xe7?'
p147
tp148
Rp149
ssg3
(dp150
g23
g24
(g28
S'\xf8\xe2\xd2q\xde\x9c\xdb?'
p151
tp152
Rp153
sg9
g24
(g28
S'\x16X`\x81\x05\x16\xe8?'
p154
tp155
Rp156
ssS'DCcEe'
p157
(dp158
g23
g24
(g28
S'\x914D\xd2\x02\x8a\xd7?'
p159
tp160
Rp161
sg9
g24
(g28
S'\xa5\x94RJ)\xa5\xc4?'
p162
tp163
Rp164
ssg18
(dp165
g23
g24
(g28
S'=q\x1c\x07\x89g\xde?'
p166
tp167
Rp168
sg9
g24
(g28
S'\xfd\xf4\xd3O?\xfd\xe4?'
p169
tp170
Rp171
sssS'RandomForestClassifier-identity'
p172
(dp173
g14
(dp174
g23
g24
(g28
S'&:\x0e\xf7\xc2\xe8\xdf?'
p175
tp176
Rp177
sg9
g24
(g28
S'\x97]v\xd9e\x97\xdd?'
p178
tp179
Rp180
ssg10
(dp181
g23
g24
(g28
S'!\xdbs\xca\x07\xab\xd4?'
p182
tp183
Rp184
sg9
g24
(g28
S'7\xdcp\xc3\r7\xec?'
p185
tp186
Rp187
ssg12
(dp188
g23
g24
(g28
S'\x9f\xefc>$\x01\xdc?'
p189
tp190
Rp191
sg9
g24
(g28
S'\xbe\xf7\xde{\xef\xbd\xe7?'
p192
tp193
Rp194
ssg3
(dp195
g23
g24
(g28
S'\xf8\xe2\xd2q\xde\x9c\xdb?'
p196
tp197
Rp198
sg9
g24
(g28
S'\x16X`\x81\x05\x16\xe8?'
p199
tp200
Rp201
ssS'DCcEe'
p202
(dp203
g23
g24
(g28
S'\x914D\xd2\x02\x8a\xd7?'
p204
tp205
Rp206
sg9
g24
(g28
S'\xa5\x94RJ)\xa5\xc4?'
p207
tp208
Rp209
ssg18
(dp210
g23
g24
(g28
S'=q\x1c\x07\x89g\xde?'
p211
tp212
Rp213
sg9
g24
(g28
S'\xfd\xf4\xd3O?\xfd\xe4?'
p214
tp215
Rp216
sssS'DecisionTreeClassifier-binarize'
p217
(dp218
g3
(dp219
g5
F1.0
sg6
F0.8727272727272726
sg7
F0.7741935483870968
sg8
F1.0
sg9
F0.7741935483870968
ssg10
(dp220
g5
F1.0
sg6
F0.9666666666666666
sg7
F0.9354838709677419
sg8
F1.0
sg9
F0.9354838709677419
ssg12
(dp221
g5
F1.0
sg6
F0.9431818181818183
sg7
F0.8924731182795699
sg8
F1.0
sg9
F0.8924731182795699
ssg14
(dp222
g5
F1.0
sg6
F0.7843137254901962
sg7
F0.6451612903225806
sg8
F1.0
sg9
F0.6451612903225806
ssS'DCcEe'
p223
(dp224
g9
F0.3010752688172043
ssg18
(dp225
g5
F0.0
sg6
F0.0
sg7
Finf
sg8
F0.0
sg9
F0.6559139784946236
sssS'SVC-identity'
p226
(dp227
g14
(dp228
g23
g24
(g28
S'&:\x0e\xf7\xc2\xe8\xdf?'
p229
tp230
Rp231
sg9
g24
(g28
S'\x97]v\xd9e\x97\xdd?'
p232
tp233
Rp234
ssg10
(dp235
g23
g24
(g28
S'!\xdbs\xca\x07\xab\xd4?'
p236
tp237
Rp238
sg9
g24
(g28
S'7\xdcp\xc3\r7\xec?'
p239
tp240
Rp241
ssg12
(dp242
g23
g24
(g28
S'\x9f\xefc>$\x01\xdc?'
p243
tp244
Rp245
sg9
g24
(g28
S'\xbe\xf7\xde{\xef\xbd\xe7?'
p246
tp247
Rp248
ssg3
(dp249
g23
g24
(g28
S'\xf8\xe2\xd2q\xde\x9c\xdb?'
p250
tp251
Rp252
sg9
g24
(g28
S'\x16X`\x81\x05\x16\xe8?'
p253
tp254
Rp255
ssS'DCcEe'
p256
(dp257
g23
g24
(g28
S'\x914D\xd2\x02\x8a\xd7?'
p258
tp259
Rp260
sg9
g24
(g28
S'\xa5\x94RJ)\xa5\xc4?'
p261
tp262
Rp263
ssg18
(dp264
g23
g24
(g28
S'=q\x1c\x07\x89g\xde?'
p265
tp266
Rp267
sg9
g24
(g28
S'\xfd\xf4\xd3O?\xfd\xe4?'
p268
tp269
Rp270
sssS'RandomForestClassifier-binarize'
p271
(dp272
g3
(dp273
g5
F1.0
sg6
F0.8727272727272726
sg7
F0.7741935483870968
sg8
F1.0
sg9
F0.7741935483870968
ssg10
(dp274
g5
F1.0
sg6
F0.9666666666666666
sg7
F0.9354838709677419
sg8
F1.0
sg9
F0.9354838709677419
ssg12
(dp275
g5
F1.0
sg6
F0.9431818181818183
sg7
F0.8924731182795699
sg8
F1.0
sg9
F0.8924731182795699
ssg14
(dp276
g5
F1.0
sg6
F0.7843137254901962
sg7
F0.6451612903225806
sg8
F1.0
sg9
F0.6451612903225806
ssS'DCcEe'
p277
(dp278
g9
F0.3010752688172043
ssg18
(dp279
g5
F0.0
sg6
F0.0
sg7
Finf
sg8
F0.0
sg9
F0.6559139784946236
sssS'LogisticRegression-binarize'
p280
(dp281
g3
(dp282
g5
F1.0
sg6
F0.8727272727272726
sg7
F0.7741935483870968
sg8
F1.0
sg9
F0.7741935483870968
ssg10
(dp283
g5
F1.0
sg6
F0.9666666666666666
sg7
F0.9354838709677419
sg8
F1.0
sg9
F0.9354838709677419
ssg12
(dp284
g5
F1.0
sg6
F0.9431818181818183
sg7
F0.8924731182795699
sg8
F1.0
sg9
F0.8924731182795699
ssg14
(dp285
g5
F1.0
sg6
F0.7843137254901962
sg7
F0.6451612903225806
sg8
F1.0
sg9
F0.6451612903225806
ssS'DCcEe'
p286
(dp287
g9
F0.3010752688172043
ssg18
(dp288
g5
F0.0
sg6
F0.0
sg7
Finf
sg8
F0.0
sg9
F0.6559139784946236
sss.