(dp0
S'SVC-binarize'
p1
(dp2
S'c'
p3
(dp4
S'recall'
p5
F0.9583333333333334
sS'F-measure'
p6
F0.9387755102040818
sS'precision'
p7
F0.92
sS'FP-rate'
p8
F0.2857142857142857
sS'accuracy'
p9
F0.9032258064516129
ssS'e'
p10
(dp11
g5
F0.9885057471264368
sg6
F0.9828571428571429
sg7
F0.9772727272727273
sg8
F0.3333333333333333
sg9
F0.967741935483871
ssS'D'
p12
(dp13
g5
F1.0
sg6
F1.0
sg7
F1.0
sg8
F0.0
sg9
F1.0
ssS'C'
p14
(dp15
g5
F0.9666666666666667
sg6
F0.9666666666666666
sg7
F0.9666666666666667
sg8
F0.06060606060606061
sg9
F0.956989247311828
ssS'DCcEe'
p16
(dp17
g9
F0.7526881720430108
ssS'E'
p18
(dp19
g5
F0.8125
sg6
F0.8125
sg7
F0.8125
sg8
F0.09836065573770492
sg9
F0.8709677419354839
sssS'DecisionTreeClassifier-identity'
p20
(dp21
g14
(dp22
S'std'
p23
cnumpy.core.multiarray
scalar
p24
(cnumpy
dtype
p25
(S'f8'
p26
I0
I1
tp27
Rp28
(I3
S'<'
p29
NNNI-1
I-1
I0
tp30
bS'\x8c\x96v9)\x9f\xde?'
p31
tp32
Rp33
sg9
g24
(g28
S'\xa5\x94RJ)\xa5\xe4?'
p34
tp35
Rp36
ssg10
(dp37
g23
g24
(g28
S"\x8e\xd6\xcc\x15\x9d'\xd8?"
p38
tp39
Rp40
sg9
g24
(g28
S'\x7f\xfa\xe9\xa7\x9f~\xea?'
p41
tp42
Rp43
ssg12
(dp44
g23
g24
(g28
S'x\x02\xfe\x1aZ\xc2\xda?'
p45
tp46
Rp47
sg9
g24
(g28
S'\xc6\x18c\x8c1\xc6\xe8?'
p48
tp49
Rp50
ssg3
(dp51
g23
g24
(g28
S'\x91ah*\xee\xeb\xd2?'
p52
tp53
Rp54
sg9
g24
(g28
S'\xe7\x9cs\xce9\xe7\xec?'
p55
tp56
Rp57
ssS'DCcEe'
p58
(dp59
g23
g24
(g28
S'\xda\xa7\xdd\xf2\x85\x01\xdf?'
p60
tp61
Rp62
sg9
g24
(g28
S'\x16X`\x81\x05\x16\xd8?'
p63
tp64
Rp65
ssg18
(dp66
g23
g24
(g28
S'^\xe6\xdc\rf\xbc\xd8?'
p67
tp68
Rp69
sg9
g24
(g28
S"'\x9ah\xa2\x89&\xea?"
p70
tp71
Rp72
sssS'GradientBoostingClassifier-binarize'
p73
(dp74
g3
(dp75
g5
F0.9305555555555556
sg6
F0.9503546099290779
sg7
F0.9710144927536232
sg8
F0.09523809523809523
sg9
F0.9247311827956989
ssg10
(dp76
g5
F0.9885057471264368
sg6
F0.9662921348314606
sg7
F0.945054945054945
sg8
F0.8333333333333334
sg9
F0.9354838709677419
ssg12
(dp77
g5
F1.0
sg6
F1.0
sg7
F1.0
sg8
F0.0
sg9
F1.0
ssg14
(dp78
g5
F0.95
sg6
F0.9500000000000001
sg7
F0.95
sg8
F0.09090909090909091
sg9
F0.9354838709677419
ssS'DCcEe'
p79
(dp80
g9
F0.7311827956989247
ssg18
(dp81
g5
F0.71875
sg6
F0.7666666666666666
sg7
F0.8214285714285714
sg8
F0.08196721311475409
sg9
F0.8494623655913979
sssS'LogisticRegression-identity'
p82
(dp83
g14
(dp84
g23
g24
(g28
S'x\x02\xfe\x1aZ\xc2\xda?'
p85
tp86
Rp87
sg9
g24
(g28
S'\xc6\x18c\x8c1\xc6\xe8?'
p88
tp89
Rp90
ssg10
(dp91
g23
g24
(g28
S'[;\xc0/\x80t\xd5?'
p92
tp93
Rp94
sg9
g24
(g28
S'\xdf{\xef\xbd\xf7\xde\xeb?'
p95
tp96
Rp97
ssg12
(dp98
g23
g24
(g28
S'\xca\xc1\x8f\x1c\xe1\xe2\xd6?'
p99
tp100
Rp101
sg9
g24
(g28
S'/\xbb\xec\xb2\xcb.\xeb?'
p102
tp103
Rp104
ssg3
(dp105
g23
g24
(g28
S'\x92ah*\xee\xeb\xd2?'
p106
tp107
Rp108
sg9
g24
(g28
S'\xe7\x9cs\xce9\xe7\xec?'
p109
tp110
Rp111
ssS'DCcEe'
p112
(dp113
g23
g24
(g28
S'$I\xff\x95\xbc\xfb\xdf?'
p114
tp115
Rp116
sg9
g24
(g28
S'\x84\x10B\x08!\x84\xe0?'
p117
tp118
Rp119
ssg18
(dp120
g23
g24
(g28
S'\xca\xc1\x8f\x1c\xe1\xe2\xd6?'
p121
tp122
Rp123
sg9
g24
(g28
S'/\xbb\xec\xb2\xcb.\xeb?'
p124
tp125
Rp126
sssS'GradientBoostingClassifier-identity'
p127
(dp128
g14
(dp129
g23
g24
(g28
S'\xbb\xd1\x96\xd4\xf0\xb8\xdc?'
p130
tp131
Rp132
sg9
g24
(g28
S'\x0e7\xdcp\xc3\r\xe7?'
p133
tp134
Rp135
ssg10
(dp136
g23
g24
(g28
S"\x8e\xd6\xcc\x15\x9d'\xd8?"
p137
tp138
Rp139
sg9
g24
(g28
S'\x7f\xfa\xe9\xa7\x9f~\xea?'
p140
tp141
Rp142
ssg12
(dp143
g23
g24
(g28
S'\xca\xc1\x8f\x1c\xe1\xe2\xd6?'
p144
tp145
Rp146
sg9
g24
(g28
S'/\xbb\xec\xb2\xcb.\xeb?'
p147
tp148
Rp149
ssg3
(dp150
g23
g24
(g28
S'l5R\xaf`1\xd6?'
p151
tp152
Rp153
sg9
g24
(g28
S'\x87\x1bn\xb8\xe1\x86\xeb?'
p154
tp155
Rp156
ssS'DCcEe'
p157
(dp158
g23
g24
(g28
S'&:\x0e\xf7\xc2\xe8\xdf?'
p159
tp160
Rp161
sg9
g24
(g28
S'\x97]v\xd9e\x97\xdd?'
p162
tp163
Rp164
ssg18
(dp165
g23
g24
(g28
S"\x8e\xd6\xcc\x15\x9d'\xd8?"
p166
tp167
Rp168
sg9
g24
(g28
S'\x7f\xfa\xe9\xa7\x9f~\xea?'
p169
tp170
Rp171
sssS'RandomForestClassifier-identity'
p172
(dp173
g14
(dp174
g23
g24
(g28
S'\x19\xbce\x97\xc1[\xdd?'
p175
tp176
Rp177
sg9
g24
(g28
S'^v\xd9e\x97]\xe6?'
p178
tp179
Rp180
ssg10
(dp181
g23
g24
(g28
S'l5R\xaf`1\xd6?'
p182
tp183
Rp184
sg9
g24
(g28
S'\x87\x1bn\xb8\xe1\x86\xeb?'
p185
tp186
Rp187
ssg12
(dp188
g23
g24
(g28
S'^\xe6\xdc\rf\xbc\xd8?'
p189
tp190
Rp191
sg9
g24
(g28
S"'\x9ah\xa2\x89&\xea?"
p192
tp193
Rp194
ssg3
(dp195
g23
g24
(g28
S'\xafh*\xa3w\xd3\xd3?'
p196
tp197
Rp198
sg9
g24
(g28
S'\x8f<\xf2\xc8#\x8f\xec?'
p199
tp200
Rp201
ssS'DCcEe'
p202
(dp203
g23
g24
(g28
S'\xda\xa7\xdd\xf2\x85\x01\xdf?'
p204
tp205
Rp206
sg9
g24
(g28
S'\x16X`\x81\x05\x16\xd8?'
p207
tp208
Rp209
ssg18
(dp210
g23
g24
(g28
S'\x19\xbce\x97\xc1[\xdd?'
p211
tp212
Rp213
sg9
g24
(g28
S'^v\xd9e\x97]\xe6?'
p214
tp215
Rp216
sssS'DecisionTreeClassifier-binarize'
p217
(dp218
g3
(dp219
g5
F0.9583333333333334
sg6
F0.9583333333333334
sg7
F0.9583333333333334
sg8
F0.14285714285714285
sg9
F0.9354838709677419
ssg10
(dp220
g5
F0.9770114942528736
sg6
F0.965909090909091
sg7
F0.9550561797752809
sg8
F0.6666666666666666
sg9
F0.9354838709677419
ssg12
(dp221
g5
F1.0
sg6
F1.0
sg7
F1.0
sg8
F0.0
sg9
F1.0
ssg14
(dp222
g5
F0.95
sg6
F0.9268292682926829
sg7
F0.9047619047619048
sg8
F0.18181818181818182
sg9
F0.9032258064516129
ssS'DCcEe'
p223
(dp224
g9
F0.6881720430107527
ssg18
(dp225
g5
F0.71875
sg6
F0.7540983606557377
sg7
F0.7931034482758621
sg8
F0.09836065573770492
sg9
F0.8387096774193549
sssS'SVC-identity'
p226
(dp227
g14
(dp228
g23
g24
(g28
S'x\x02\xfe\x1aZ\xc2\xda?'
p229
tp230
Rp231
sg9
g24
(g28
S'\xc6\x18c\x8c1\xc6\xe8?'
p232
tp233
Rp234
ssg10
(dp235
g23
g24
(g28
S'\x92ah*\xee\xeb\xd2?'
p236
tp237
Rp238
sg9
g24
(g28
S'\xe7\x9cs\xce9\xe7\xec?'
p239
tp240
Rp241
ssg12
(dp242
g23
g24
(g28
S'\xca\xc1\x8f\x1c\xe1\xe2\xd6?'
p243
tp244
Rp245
sg9
g24
(g28
S'/\xbb\xec\xb2\xcb.\xeb?'
p246
tp247
Rp248
ssg3
(dp249
g23
g24
(g28
S'\x92ah*\xee\xeb\xd2?'
p250
tp251
Rp252
sg9
g24
(g28
S'\xe7\x9cs\xce9\xe7\xec?'
p253
tp254
Rp255
ssS'DCcEe'
p256
(dp257
g23
g24
(g28
S'v\xffi\xb1~\xc6\xdf?'
p258
tp259
Rp260
sg9
g24
(g28
S'\xe4\x91G\x1ey\xe4\xe1?'
p261
tp262
Rp263
ssg18
(dp264
g23
g24
(g28
S'\x904D\xd2\x02\x8a\xd7?'
p265
tp266
Rp267
sg9
g24
(g28
S'\xd7Zk\xad\xb5\xd6\xea?'
p268
tp269
Rp270
sssS'RandomForestClassifier-binarize'
p271
(dp272
g3
(dp273
g5
F0.9166666666666666
sg6
F0.942857142857143
sg7
F0.9705882352941176
sg8
F0.09523809523809523
sg9
F0.9139784946236559
ssg10
(dp274
g5
F0.9885057471264368
sg6
F0.9608938547486033
sg7
F0.9347826086956522
sg8
F1.0
sg9
F0.9247311827956989
ssg12
(dp275
g5
F1.0
sg6
F1.0
sg7
F1.0
sg8
F0.0
sg9
F1.0
ssg14
(dp276
g5
F0.95
sg6
F0.9193548387096776
sg7
F0.890625
sg8
F0.21212121212121213
sg9
F0.8924731182795699
ssS'DCcEe'
p277
(dp278
g9
F0.6344086021505376
ssg18
(dp279
g5
F0.53125
sg6
F0.6071428571428572
sg7
F0.7083333333333334
sg8
F0.11475409836065574
sg9
F0.7634408602150538
sssS'LogisticRegression-binarize'
p280
(dp281
g3
(dp282
g5
F0.9444444444444444
sg6
F0.9444444444444444
sg7
F0.9444444444444444
sg8
F0.19047619047619047
sg9
F0.9139784946236559
ssg10
(dp283
g5
F0.9885057471264368
sg6
F0.9608938547486033
sg7
F0.9347826086956522
sg8
F1.0
sg9
F0.9247311827956989
ssg12
(dp284
g5
F1.0
sg6
F1.0
sg7
F1.0
sg8
F0.0
sg9
F1.0
ssg14
(dp285
g5
F0.9666666666666667
sg6
F0.9586776859504132
sg7
F0.9508196721311475
sg8
F0.09090909090909091
sg9
F0.946236559139785
ssS'DCcEe'
p286
(dp287
g9
F0.7096774193548387
ssg18
(dp288
g5
F0.78125
sg6
F0.78125
sg7
F0.78125
sg8
F0.11475409836065574
sg9
F0.8494623655913979
sss.